
software/ucosii/ucosii:     file format elf64-littleriscv


Disassembly of section .init:

0000000080000000 <vector_base>:
    80000000:	1980006f          	j	80000198 <_start>
	...
    80000038:	08d8                	addi	a4,sp,84
    8000003a:	8000                	0x8000
	...
    80000188:	17ca                	slli	a5,a5,0x32
    8000018a:	8000                	0x8000
    8000018c:	0000                	unimp
    8000018e:	0000                	unimp
    80000190:	1784                	addi	s1,sp,992
    80000192:	8000                	0x8000
    80000194:	0000                	unimp
	...

0000000080000198 <_start>:
	.section .init

	.globl _start
	.type _start,@function
_start:
	csrc CSR_MSTATUS, MSTATUS_MIE
    80000198:	30047073          	csrci	mstatus,8
    	/* Set the the NMI base to share with mtvec by setting CSR_MMISC_CTL */
    	li t0, (0x1 << 9);
    8000019c:	20000293          	li	t0,512
    	csrs CSR_MMISC_CTL, t0
    800001a0:	7d02a073          	csrs	0x7d0,t0

	/* Intial the mtvt*/
    	la t0, vector_base
    800001a4:	00000297          	auipc	t0,0x0
    800001a8:	e5c28293          	addi	t0,t0,-420 # 80000000 <vector_base>
    	csrw CSR_MTVT, t0
    800001ac:	30729073          	csrw	0x307,t0

	/* Intial the mtvt2 and enable it*/
    	la t0, irq_entry
    800001b0:	00001297          	auipc	t0,0x1
    800001b4:	93028293          	addi	t0,t0,-1744 # 80000ae0 <irq_entry>
    	csrw CSR_MTVT2, t0
    800001b8:	7ec29073          	csrw	0x7ec,t0
    	csrs CSR_MTVT2, 0x1
    800001bc:	7ec0e073          	csrsi	0x7ec,1

    	/* Intial the CSR MTVEC for the Trap ane NMI base addr*/
    	la t0, trap_entry
    800001c0:	00000297          	auipc	t0,0x0
    800001c4:	68028293          	addi	t0,t0,1664 # 80000840 <trap_entry>
    	csrw CSR_MTVEC, t0
    800001c8:	30529073          	csrw	mtvec,t0
	csrw fcsr, x0   
#endif

    	.option push
    	.option norelax
	la gp, __global_pointer$
    800001cc:	10001197          	auipc	gp,0x10001
    800001d0:	bd418193          	addi	gp,gp,-1068 # 90000da0 <__global_pointer$>
    	.option pop
	la sp, _sp
    800001d4:	10010117          	auipc	sp,0x10010
    800001d8:	e2c10113          	addi	sp,sp,-468 # 90010000 <_sp>

	/* Bob: Load code section from flash to ILM */
	la a0, _ilm_lma
    800001dc:	00000517          	auipc	a0,0x0
    800001e0:	0c050513          	addi	a0,a0,192 # 8000029c <_ilm>
	la a1, _ilm
    800001e4:	00000597          	auipc	a1,0x0
    800001e8:	0b858593          	addi	a1,a1,184 # 8000029c <_ilm>
        beq a0, a1, 2f  /*If the ILM phy-address same as the logic-address, then quit*/
    800001ec:	02b50063          	beq	a0,a1,8000020c <_start+0x74>
	la a2, _eilm
    800001f0:	00003617          	auipc	a2,0x3
    800001f4:	04460613          	addi	a2,a2,68 # 80003234 <_data_lma>
	bgeu a1, a2, 2f
    800001f8:	00c5fa63          	bgeu	a1,a2,8000020c <_start+0x74>
1:
	lw t0, (a0)
    800001fc:	00052283          	lw	t0,0(a0)
	sw t0, (a1)
    80000200:	0055a023          	sw	t0,0(a1)
	addi a0, a0, 4
    80000204:	0511                	addi	a0,a0,4
	addi a1, a1, 4
    80000206:	0591                	addi	a1,a1,4
	bltu a1, a2, 1b
    80000208:	fec5eae3          	bltu	a1,a2,800001fc <_start+0x64>
2:

	/* Load data section */
	la a0, _data_lma
    8000020c:	00003517          	auipc	a0,0x3
    80000210:	02850513          	addi	a0,a0,40 # 80003234 <_data_lma>
	la a1, _data
    80000214:	10000597          	auipc	a1,0x10000
    80000218:	dec58593          	addi	a1,a1,-532 # 90000000 <_data>
	la a2, _edata
    8000021c:	10000617          	auipc	a2,0x10000
    80000220:	39460613          	addi	a2,a2,916 # 900005b0 <__bss_start>
	bgeu a1, a2, 2f
    80000224:	00c5fa63          	bgeu	a1,a2,80000238 <_start+0xa0>
1:
	lw t0, (a0)
    80000228:	00052283          	lw	t0,0(a0)
	sw t0, (a1)
    8000022c:	0055a023          	sw	t0,0(a1)
	addi a0, a0, 4
    80000230:	0511                	addi	a0,a0,4
	addi a1, a1, 4
    80000232:	0591                	addi	a1,a1,4
	bltu a1, a2, 1b
    80000234:	fec5eae3          	bltu	a1,a2,80000228 <_start+0x90>
2:

	/* Clear bss section */
	la a0, __bss_start
    80000238:	10000517          	auipc	a0,0x10000
    8000023c:	37850513          	addi	a0,a0,888 # 900005b0 <__bss_start>
	la a1, _end
    80000240:	1000b597          	auipc	a1,0x1000b
    80000244:	85058593          	addi	a1,a1,-1968 # 9000aa90 <_end>
	bgeu a0, a1, 2f
    80000248:	00b57763          	bgeu	a0,a1,80000256 <_start+0xbe>
1:
	sw zero, (a0)
    8000024c:	00052023          	sw	zero,0(a0)
	addi a0, a0, 4
    80000250:	0511                	addi	a0,a0,4
	bltu a0, a1, 1b
    80000252:	feb56de3          	bltu	a0,a1,8000024c <_start+0xb4>
2:
	/*enable mcycle_minstret*/
        csrci CSR_MCOUNTINHIBIT, 0x5
    80000256:	3202f073          	csrci	mucounteren,5
	/* Call global constructors */
	la a0, __libc_fini_array
    8000025a:	00002517          	auipc	a0,0x2
    8000025e:	9a050513          	addi	a0,a0,-1632 # 80001bfa <__libc_fini_array>
	call atexit
    80000262:	161010ef          	jal	ra,80001bc2 <atexit>
	call __libc_init_array
    80000266:	1cf010ef          	jal	ra,80001c34 <__libc_init_array>


	/* argc = argv = 0 */
	li a0, 0
    8000026a:	4501                	li	a0,0
	li a1, 0
    8000026c:	4581                	li	a1,0
	call main
    8000026e:	092000ef          	jal	ra,80000300 <main>
	tail exit
    80000272:	15d0106f          	j	80001bce <exit>

1:
	j 1b
    80000276:	a001                	j	80000276 <_start+0xde>

0000000080000278 <disable_mcycle_minstret>:

	.global disable_mcycle_minstret
disable_mcycle_minstret:
        csrsi CSR_MCOUNTINHIBIT, 0x5
    80000278:	3202e073          	csrsi	mucounteren,5
	ret
    8000027c:	8082                	ret

000000008000027e <enable_mcycle_minstret>:

	.global enable_mcycle_minstret
enable_mcycle_minstret:
        csrci CSR_MCOUNTINHIBIT, 0x5
    8000027e:	3202f073          	csrci	mucounteren,5
	ret
    80000282:	8082                	ret

0000000080000284 <core_wfe>:

	.global core_wfe
core_wfe:
    	csrc CSR_MSTATUS, MSTATUS_MIE
    80000284:	30047073          	csrci	mstatus,8
    	csrs CSR_WFE, 0x1
    80000288:	8100e073          	csrsi	0x810,1
    	wfi
    8000028c:	10500073          	wfi
    	csrc CSR_WFE, 0x1
    80000290:	8100f073          	csrci	0x810,1
    	csrs CSR_MSTATUS, MSTATUS_MIE
    80000294:	30046073          	csrsi	mstatus,8
	ret
    80000298:	8082                	ret

Disassembly of section .ilalign:

000000008000029a <_ilm-0x2>:
	...

Disassembly of section .text:

0000000080000300 <main>:
//	enable_global_int();
 //for(;;){}
}

int main(void)
{
    80000300:	6ed022ef          	jal	t0,800031ec <__riscv_save_2>
    80000304:	1141                	addi	sp,sp,-16
	printf("Start ucosii...\n");
    80000306:	10000517          	auipc	a0,0x10000
    8000030a:	df250513          	addi	a0,a0,-526 # 900000f8 <_data+0xf8>
    8000030e:	621010ef          	jal	ra,8000212e <puts>
    GPIO_REG(GPIO_OUTPUT_EN)  &= ~((0x1 << BUTTON_1_GPIO_OFFSET) | (0x1 << BUTTON_2_GPIO_OFFSET));
    80000312:	100127b7          	lui	a5,0x10012
    80000316:	4794                	lw	a3,8(a5)
    80000318:	40000737          	lui	a4,0x40000
    8000031c:	177d                	addi	a4,a4,-1
    8000031e:	2681                	sext.w	a3,a3
    80000320:	8ef9                	and	a3,a3,a4
    80000322:	c794                	sw	a3,8(a5)
    GPIO_REG(GPIO_PULLUP_EN)  &= ~((0x1 << BUTTON_1_GPIO_OFFSET) | (0x1 << BUTTON_2_GPIO_OFFSET));
    80000324:	4b94                	lw	a3,16(a5)
    GPIO_REG(GPIO_INPUT_EN)   |=  ((0x1 << BUTTON_1_GPIO_OFFSET) | (0x1 << BUTTON_2_GPIO_OFFSET));
    80000326:	c00005b7          	lui	a1,0xc0000
    INT8U    ix_next;
    OS_TCB  *ptcb1;
    OS_TCB  *ptcb2;


    OS_MemClr((INT8U *)&OSTCBTbl[0],     sizeof(OSTCBTbl));      /* Clear all the TCBs                 */
    8000032a:	10001517          	auipc	a0,0x10001
    8000032e:	8e650513          	addi	a0,a0,-1818 # 90000c10 <OSTCBTbl>
    GPIO_REG(GPIO_PULLUP_EN)  &= ~((0x1 << BUTTON_1_GPIO_OFFSET) | (0x1 << BUTTON_2_GPIO_OFFSET));
    80000332:	2681                	sext.w	a3,a3
    80000334:	8ef9                	and	a3,a3,a4
    80000336:	cb94                	sw	a3,16(a5)
    GPIO_REG(GPIO_INPUT_EN)   |=  ((0x1 << BUTTON_1_GPIO_OFFSET) | (0x1 << BUTTON_2_GPIO_OFFSET));
    80000338:	43d0                	lw	a2,4(a5)
    8000033a:	8e4d                	or	a2,a2,a1
    8000033c:	2601                	sext.w	a2,a2
    8000033e:	c3d0                	sw	a2,4(a5)
    GPIO_REG(GPIO_RISE_IE) |= ((0x1 << BUTTON_1_GPIO_OFFSET) | (0x1 << BUTTON_2_GPIO_OFFSET));
    80000340:	4f94                	lw	a3,24(a5)
    80000342:	8ecd                	or	a3,a3,a1
    80000344:	2681                	sext.w	a3,a3
    80000346:	cf94                	sw	a3,24(a5)
    GPIO_REG(GPIO_FALL_IE) &= ~((0x1 << BUTTON_1_GPIO_OFFSET) | (0x1 << BUTTON_2_GPIO_OFFSET));
    80000348:	5394                	lw	a3,32(a5)
    8000034a:	6585                	lui	a1,0x1
    8000034c:	c6058593          	addi	a1,a1,-928 # c60 <__stack_size+0x460>
    80000350:	2681                	sext.w	a3,a3
    80000352:	8ef9                	and	a3,a3,a4
    80000354:	d394                	sw	a3,32(a5)
    GPIO_REG(GPIO_HIGH_IE) &= ~((0x1 << BUTTON_1_GPIO_OFFSET) | (0x1 << BUTTON_2_GPIO_OFFSET));
    80000356:	5794                	lw	a3,40(a5)
    80000358:	2681                	sext.w	a3,a3
    8000035a:	8ef9                	and	a3,a3,a4
    8000035c:	d794                	sw	a3,40(a5)
    GPIO_REG(GPIO_LOW_IE) &= ~((0x1 << BUTTON_1_GPIO_OFFSET) | (0x1 << BUTTON_2_GPIO_OFFSET));
    8000035e:	5b94                	lw	a3,48(a5)
    80000360:	2681                	sext.w	a3,a3
    80000362:	8f75                	and	a4,a4,a3
    80000364:	db98                	sw	a4,48(a5)
  GPIO_REG(GPIO_INPUT_EN)    &= ~((0x1<< RED_LED_GPIO_OFFSET) | (0x1<< GREEN_LED_GPIO_OFFSET) | (0x1 << BLUE_LED_GPIO_OFFSET)) ;
    80000366:	43d8                	lw	a4,4(a5)
    80000368:	ff9806b7          	lui	a3,0xff980
    8000036c:	16fd                	addi	a3,a3,-1
    8000036e:	2701                	sext.w	a4,a4
    80000370:	8f75                	and	a4,a4,a3
    80000372:	c3d8                	sw	a4,4(a5)
  GPIO_REG(GPIO_OUTPUT_EN)   |=  ((0x1<< RED_LED_GPIO_OFFSET)| (0x1<< GREEN_LED_GPIO_OFFSET) | (0x1 << BLUE_LED_GPIO_OFFSET)) ;
    80000374:	4798                	lw	a4,8(a5)
    80000376:	006806b7          	lui	a3,0x680
    8000037a:	2701                	sext.w	a4,a4
    8000037c:	8f55                	or	a4,a4,a3
    8000037e:	c798                	sw	a4,8(a5)
  GPIO_REG(GPIO_OUTPUT_VAL)  |=   (0x1 << RED_LED_GPIO_OFFSET) ;
    80000380:	47d8                	lw	a4,12(a5)
    80000382:	000806b7          	lui	a3,0x80
    80000386:	2701                	sext.w	a4,a4
    80000388:	8f55                	or	a4,a4,a3
    8000038a:	c7d8                	sw	a4,12(a5)
  GPIO_REG(GPIO_OUTPUT_VAL)  &=  ~((0x1<< BLUE_LED_GPIO_OFFSET) | (0x1<< GREEN_LED_GPIO_OFFSET)) ;
    8000038c:	47d8                	lw	a4,12(a5)
    8000038e:	ffa006b7          	lui	a3,0xffa00
    80000392:	16fd                	addi	a3,a3,-1
    80000394:	2701                	sext.w	a4,a4
    80000396:	8f75                	and	a4,a4,a3
    80000398:	c7d8                	sw	a4,12(a5)
}



void eclic_enable_interrupt (uint32_t source) {
    *(volatile uint8_t*)(ECLIC_ADDR_BASE+ECLIC_INT_IE_OFFSET+source*4) = 1;
    8000039a:	0c0017b7          	lui	a5,0xc001
    8000039e:	4705                	li	a4,1
    800003a0:	0ce782a3          	sb	a4,197(a5) # c0010c5 <soc_func.c.4d39cff4+0xbfed4d8>
    800003a4:	0ce784a3          	sb	a4,201(a5)
void eclic_set_cliccfg (uint8_t cliccfg){
  *(volatile uint8_t*)(ECLIC_ADDR_BASE+ECLIC_CFG_OFFSET) = cliccfg;
}

uint8_t eclic_get_cliccfg  (){
  return *(volatile uint8_t*)(ECLIC_ADDR_BASE+ECLIC_CFG_OFFSET);
    800003a8:	0c0006b7          	lui	a3,0xc000
    800003ac:	0006c703          	lbu	a4,0(a3) # c000000 <soc_func.c.4d39cff4+0xbfec413>
  //shift nlbits to correct position
  uint8_t nlbits_shifted = nlbits << ECLIC_CFG_NLBITS_LSB;

  //read the current cliccfg 
  uint8_t old_cliccfg = eclic_get_cliccfg();
  uint8_t new_cliccfg = (old_cliccfg & (~ECLIC_CFG_NLBITS_MASK)) | (ECLIC_CFG_NLBITS_MASK & nlbits_shifted); 
    800003b0:	0e177713          	andi	a4,a4,225
    800003b4:	00676713          	ori	a4,a4,6
  *(volatile uint8_t*)(ECLIC_ADDR_BASE+ECLIC_CFG_OFFSET) = cliccfg;
    800003b8:	00e68023          	sb	a4,0(a3)
  return *(volatile uint8_t*)(ECLIC_ADDR_BASE+ECLIC_CFG_OFFSET);
    800003bc:	0006c703          	lbu	a4,0(a3)
  return *(volatile uint8_t*)(ECLIC_ADDR_BASE+ECLIC_INT_CTRL_OFFSET+source*4);
    800003c0:	0c77c703          	lbu	a4,199(a5)
  //write to clicintctrl
  uint8_t current_intctrl = eclic_get_intctrl(source);
  //shift intctrl left to mask off unused bits
  current_intctrl = current_intctrl << nlbits;
  //shift intctrl into correct bit position
  current_intctrl = current_intctrl >> nlbits;
    800003c4:	8b7d                	andi	a4,a4,31

  eclic_set_intctrl(source, (current_intctrl | lvl));
    800003c6:	04076713          	ori	a4,a4,64
  *(volatile uint8_t*)(ECLIC_ADDR_BASE+ECLIC_INT_CTRL_OFFSET+source*4) = intctrl;
    800003ca:	0ce783a3          	sb	a4,199(a5)
  return *(volatile uint8_t*)(ECLIC_ADDR_BASE+ECLIC_CFG_OFFSET);
    800003ce:	0006c703          	lbu	a4,0(a3)
  return *(volatile uint8_t*)(ECLIC_ADDR_BASE+ECLIC_INT_CTRL_OFFSET+source*4);
    800003d2:	0cb7c703          	lbu	a4,203(a5)
  current_intctrl = current_intctrl >> nlbits;
    800003d6:	8b7d                	andi	a4,a4,31
  eclic_set_intctrl(source, (current_intctrl | lvl));
    800003d8:	06076713          	ori	a4,a4,96
  *(volatile uint8_t*)(ECLIC_ADDR_BASE+ECLIC_INT_CTRL_OFFSET+source*4) = intctrl;
    800003dc:	0ce785a3          	sb	a4,203(a5)
  return *(volatile uint8_t*)(ECLIC_ADDR_BASE+ECLIC_INT_ATTR_OFFSET+source*4);
    800003e0:	01e7c703          	lbu	a4,30(a5)
//sets vector-mode or non-vector mode 
void eclic_set_vmode(uint32_t source) {
  //read the current attr 
  uint8_t old_intattr = eclic_get_intattr(source);
      // Keep other bits unchanged and only set the LSB bit
  uint8_t new_intattr = (old_intattr | 0x1); 
    800003e4:	00176713          	ori	a4,a4,1
  *(volatile uint8_t*)(ECLIC_ADDR_BASE+ECLIC_INT_ATTR_OFFSET+source*4) = intattr;
    800003e8:	00e78f23          	sb	a4,30(a5)
    OSTime                    = 0uL;                       /* Clear the 32-bit system clock            */
    800003ec:	10000797          	auipc	a5,0x10000
    800003f0:	2207a023          	sw	zero,544(a5) # 9000060c <OSTime>
*/
#if OS_CPU_HOOKS_EN > 0 && OS_VERSION > 203
void  OSInitHookBegin (void)
{
#if OS_TMR_EN > 0
    OSTmrCtr = 0;
    800003f4:	10000797          	auipc	a5,0x10000
    800003f8:	20079e23          	sh	zero,540(a5) # 90000610 <OSTmrCtr>
    OSIntNesting              = 0u;                        /* Clear the interrupt nesting counter      */
    800003fc:	10000797          	auipc	a5,0x10000
    80000400:	1c078823          	sb	zero,464(a5) # 900005cc <OSIntNesting>
    OSLockNesting             = 0u;                        /* Clear the scheduling lock counter        */
    80000404:	10000797          	auipc	a5,0x10000
    80000408:	1c0784a3          	sb	zero,457(a5) # 900005cd <OSLockNesting>
    OSTaskCtr                 = 0u;                        /* Clear the number of tasks                */
    8000040c:	10000797          	auipc	a5,0x10000
    80000410:	1e078e23          	sb	zero,508(a5) # 90000608 <OSTaskCtr>
    OSRunning                 = OS_FALSE;                  /* Indicate that multitasking not started   */
    80000414:	10000797          	auipc	a5,0x10000
    80000418:	1c078623          	sb	zero,460(a5) # 900005e0 <OSRunning>
    OSCtxSwCtr                = 0u;                        /* Clear the context switch counter         */
    8000041c:	10000797          	auipc	a5,0x10000
    80000420:	1807aa23          	sw	zero,404(a5) # 900005b0 <__bss_start>
    OSIdleCtr                 = 0uL;                       /* Clear the 32-bit idle counter            */
    80000424:	10000797          	auipc	a5,0x10000
    80000428:	1807ae23          	sw	zero,412(a5) # 900005c0 <OSIdleCtr>
    OSIdleCtrRun              = 0uL;
    8000042c:	10000797          	auipc	a5,0x10000
    80000430:	1807ae23          	sw	zero,412(a5) # 900005c8 <OSIdleCtrRun>
    OSIdleCtrMax              = 0uL;
    80000434:	10000797          	auipc	a5,0x10000
    80000438:	1807a823          	sw	zero,400(a5) # 900005c4 <OSIdleCtrMax>
    OSStatRdy                 = OS_FALSE;                  /* Statistic task is not ready              */
    8000043c:	10000797          	auipc	a5,0x10000
    80000440:	1a0782a3          	sb	zero,421(a5) # 900005e1 <OSStatRdy>
    OSRdyGrp      = 0u;                                    /* Clear the ready list                     */
    80000444:	10000797          	auipc	a5,0x10000
    80000448:	18078623          	sb	zero,396(a5) # 900005d0 <OSRdyGrp>
        OSRdyTbl[i] = 0u;
    8000044c:	10000797          	auipc	a5,0x10000
    80000450:	1807b623          	sd	zero,396(a5) # 900005d8 <OSRdyTbl>
    OSPrioCur     = 0u;
    80000454:	10000797          	auipc	a5,0x10000
    80000458:	16078d23          	sb	zero,378(a5) # 900005ce <OSPrioCur>
    OSPrioHighRdy = 0u;
    8000045c:	10000797          	auipc	a5,0x10000
    80000460:	160789a3          	sb	zero,371(a5) # 900005cf <OSPrioHighRdy>
    OSTCBHighRdy  = (OS_TCB *)0;
    80000464:	10000797          	auipc	a5,0x10000
    80000468:	1807ba23          	sd	zero,404(a5) # 900005f8 <OSTCBHighRdy>
    OSTCBCur      = (OS_TCB *)0;
    8000046c:	10000797          	auipc	a5,0x10000
    80000470:	1607be23          	sd	zero,380(a5) # 900005e8 <OSTCBCur>
    OS_MemClr((INT8U *)&OSTCBTbl[0],     sizeof(OSTCBTbl));      /* Clear all the TCBs                 */
    80000474:	78c000ef          	jal	ra,80000c00 <OS_MemClr>
    OS_MemClr((INT8U *)&OSTCBPrioTbl[0], sizeof(OSTCBPrioTbl));  /* Clear the priority table           */
    80000478:	20000593          	li	a1,512
    8000047c:	c7018513          	addi	a0,gp,-912 # 90000a10 <OSTCBPrioTbl>
    80000480:	780000ef          	jal	ra,80000c00 <OS_MemClr>
        ix_next =  ix + 1u;
        ptcb1   = &OSTCBTbl[ix];
        ptcb2   = &OSTCBTbl[ix_next];
        ptcb1->OSTCBNext = ptcb2;
#if OS_TASK_NAME_EN > 0u
        ptcb1->OSTCBTaskName = (INT8U *)(void *)"?";             /* Unknown name                       */
    80000484:	10000717          	auipc	a4,0x10000
    80000488:	b7c70713          	addi	a4,a4,-1156 # 90000000 <_data>
    8000048c:	10001797          	auipc	a5,0x10001
    80000490:	81478793          	addi	a5,a5,-2028 # 90000ca0 <OSTCBTbl+0x90>
    80000494:	10001697          	auipc	a3,0x10001
    80000498:	3dc68693          	addi	a3,a3,988 # 90001870 <OSTaskIdleStk>
    8000049c:	843a                	mv	s0,a4
        ptcb1->OSTCBNext = ptcb2;
    8000049e:	f8f7b823          	sd	a5,-112(a5)
        ptcb1->OSTCBTaskName = (INT8U *)(void *)"?";             /* Unknown name                       */
    800004a2:	fee7b823          	sd	a4,-16(a5)
    for (ix = 0u; ix < (OS_MAX_TASKS + OS_N_SYS_TASKS - 1u); ix++) {    /* Init. list of free TCBs     */
    800004a6:	09078793          	addi	a5,a5,144
    800004aa:	fef69ae3          	bne	a3,a5,8000049e <main+0x19e>
#endif
    }
    ptcb1                   = &OSTCBTbl[ix];
    ptcb1->OSTCBNext        = (OS_TCB *)0;                       /* Last OS_TCB                        */
#if OS_TASK_NAME_EN > 0u
    ptcb1->OSTCBTaskName    = (INT8U *)(void *)"?";              /* Unknown name                       */
    800004ae:	10001797          	auipc	a5,0x10001
    800004b2:	3ae7b923          	sd	a4,946(a5) # 90001860 <__global_pointer$+0xac0>
    ptcb1->OSTCBNext        = (OS_TCB *)0;                       /* Last OS_TCB                        */
    800004b6:	10001797          	auipc	a5,0x10001
    800004ba:	3407b523          	sd	zero,842(a5) # 90001800 <__global_pointer$+0xa60>
#endif
    OSTCBList               = (OS_TCB *)0;                       /* TCB lists initializations          */
    800004be:	10000797          	auipc	a5,0x10000
    800004c2:	1407b123          	sd	zero,322(a5) # 90000600 <OSTCBList>
    OSTCBFreeList           = &OSTCBTbl[0];
    800004c6:	10000797          	auipc	a5,0x10000
    800004ca:	74a78793          	addi	a5,a5,1866 # 90000c10 <OSTCBTbl>
    OS_MemClr((INT8U *)&OSEventTbl[0], sizeof(OSEventTbl)); /* Clear the event table                   */
    800004ce:	19000593          	li	a1,400
    800004d2:	10000517          	auipc	a0,0x10000
    800004d6:	18650513          	addi	a0,a0,390 # 90000658 <OSEventTbl>
    OSTCBFreeList           = &OSTCBTbl[0];
    800004da:	10000717          	auipc	a4,0x10000
    800004de:	10f73b23          	sd	a5,278(a4) # 900005f0 <OSTCBFreeList>
    OS_MemClr((INT8U *)&OSEventTbl[0], sizeof(OSEventTbl)); /* Clear the event table                   */
    800004e2:	71e000ef          	jal	ra,80000c00 <OS_MemClr>
    for (ix = 0u; ix < (OS_MAX_EVENTS - 1u); ix++) {        /* Init. list of free EVENT control blocks */
    800004e6:	10000797          	auipc	a5,0x10000
    800004ea:	17278793          	addi	a5,a5,370 # 90000658 <OSEventTbl>
    800004ee:	a2018613          	addi	a2,gp,-1504 # 900007c0 <OSEventTbl+0x168>
    800004f2:	86be                	mv	a3,a5
        pevent2 = &OSEventTbl[ix_next];
    800004f4:	873e                	mv	a4,a5
    800004f6:	02878793          	addi	a5,a5,40
        pevent1->OSEventType    = OS_EVENT_TYPE_UNUSED;
    800004fa:	00070023          	sb	zero,0(a4)
        pevent1->OSEventPtr     = pevent2;
    800004fe:	e71c                	sd	a5,8(a4)
        pevent1->OSEventName    = (INT8U *)(void *)"?";     /* Unknown name                            */
    80000500:	f300                	sd	s0,32(a4)
    for (ix = 0u; ix < (OS_MAX_EVENTS - 1u); ix++) {        /* Init. list of free EVENT control blocks */
    80000502:	fef619e3          	bne	a2,a5,800004f4 <main+0x1f4>
    INT16U        ix_next;
    OS_FLAG_GRP  *pgrp1;
    OS_FLAG_GRP  *pgrp2;


    OS_MemClr((INT8U *)&OSFlagTbl[0], sizeof(OSFlagTbl));           /* Clear the flag group table      */
    80000506:	a4818493          	addi	s1,gp,-1464 # 900007e8 <OSFlagTbl>
    pevent1->OSEventName            = (INT8U *)(void *)"?"; /* Unknown name                            */
    8000050a:	1886b423          	sd	s0,392(a3)
    8000050e:	8526                	mv	a0,s1
    80000510:	0a000593          	li	a1,160
    OSEventFreeList                 = &OSEventTbl[0];
    80000514:	10000797          	auipc	a5,0x10000
    80000518:	0ad7b223          	sd	a3,164(a5) # 900005b8 <OSEventFreeList>
    pevent1->OSEventType            = OS_EVENT_TYPE_UNUSED;
    8000051c:	a2018023          	sb	zero,-1504(gp) # 900007c0 <OSEventTbl+0x168>
    pevent1->OSEventPtr             = (OS_EVENT *)0;
    80000520:	a201b423          	sd	zero,-1496(gp) # 900007c8 <OSEventTbl+0x170>
    80000524:	6dc000ef          	jal	ra,80000c00 <OS_MemClr>
    for (ix = 0u; ix < (OS_MAX_FLAGS - 1u); ix++) {                 /* Init. list of free EVENT FLAGS  */
        ix_next = ix + 1u;
        pgrp1 = &OSFlagTbl[ix];
        pgrp2 = &OSFlagTbl[ix_next];
        pgrp1->OSFlagType     = OS_EVENT_TYPE_UNUSED;
    80000528:	a4018423          	sb	zero,-1464(gp) # 900007e8 <OSFlagTbl>
        pgrp1->OSFlagWaitList = (void *)pgrp2;
    8000052c:	a6818793          	addi	a5,gp,-1432 # 90000808 <OSFlagTbl+0x20>
    80000530:	e49c                	sd	a5,8(s1)
        pgrp1->OSFlagType     = OS_EVENT_TYPE_UNUSED;
    80000532:	a6018423          	sb	zero,-1432(gp) # 90000808 <OSFlagTbl+0x20>
        pgrp1->OSFlagWaitList = (void *)pgrp2;
    80000536:	a8818793          	addi	a5,gp,-1400 # 90000828 <OSFlagTbl+0x40>
    8000053a:	f49c                	sd	a5,40(s1)
        pgrp1->OSFlagType     = OS_EVENT_TYPE_UNUSED;
    8000053c:	a8018423          	sb	zero,-1400(gp) # 90000828 <OSFlagTbl+0x40>
        pgrp1->OSFlagWaitList = (void *)pgrp2;
    80000540:	aa818793          	addi	a5,gp,-1368 # 90000848 <OSFlagTbl+0x60>
    80000544:	e4bc                	sd	a5,72(s1)
        pgrp1->OSFlagType     = OS_EVENT_TYPE_UNUSED;
    80000546:	aa018423          	sb	zero,-1368(gp) # 90000848 <OSFlagTbl+0x60>
        pgrp1->OSFlagWaitList = (void *)pgrp2;
    8000054a:	ac818793          	addi	a5,gp,-1336 # 90000868 <OSFlagTbl+0x80>
    8000054e:	f4bc                	sd	a5,104(s1)
#if OS_FLAG_NAME_EN > 0u
        pgrp1->OSFlagName     = (INT8U *)(void *)"?";               /* Unknown name                    */
    80000550:	ec80                	sd	s0,24(s1)
    80000552:	fc80                	sd	s0,56(s1)
    80000554:	eca0                	sd	s0,88(s1)
    80000556:	fca0                	sd	s0,120(s1)
    }
    pgrp1                 = &OSFlagTbl[ix];
    pgrp1->OSFlagType     = OS_EVENT_TYPE_UNUSED;
    pgrp1->OSFlagWaitList = (void *)0;
#if OS_FLAG_NAME_EN > 0u
    pgrp1->OSFlagName     = (INT8U *)(void *)"?";                   /* Unknown name                    */
    80000558:	ecc0                	sd	s0,152(s1)
#if OS_MAX_MEM_PART >= 2u
    OS_MEM  *pmem;
    INT16U   i;


    OS_MemClr((INT8U *)&OSMemTbl[0], sizeof(OSMemTbl));   /* Clear the memory partition table          */
    8000055a:	ae818493          	addi	s1,gp,-1304 # 90000888 <OSMemTbl>
    8000055e:	8526                	mv	a0,s1
    80000560:	0c800593          	li	a1,200
    pgrp1->OSFlagType     = OS_EVENT_TYPE_UNUSED;
    80000564:	ac018423          	sb	zero,-1336(gp) # 90000868 <OSFlagTbl+0x80>
    pgrp1->OSFlagWaitList = (void *)0;
    80000568:	ac01b823          	sd	zero,-1328(gp) # 90000870 <OSFlagTbl+0x88>
    8000056c:	694000ef          	jal	ra,80000c00 <OS_MemClr>
    for (i = 0u; i < (OS_MAX_MEM_PART - 1u); i++) {       /* Init. list of free memory partitions      */
        pmem                = &OSMemTbl[i];               /* Point to memory control block (MCB)       */
        pmem->OSMemFreeList = (void *)&OSMemTbl[i + 1u];  /* Chain list of free partitions             */
    80000570:	b1018793          	addi	a5,gp,-1264 # 900008b0 <OSMemTbl+0x28>
    80000574:	e49c                	sd	a5,8(s1)
    80000576:	b3818793          	addi	a5,gp,-1224 # 900008d8 <OSMemTbl+0x50>
    8000057a:	f89c                	sd	a5,48(s1)
    8000057c:	b6018793          	addi	a5,gp,-1184 # 90000900 <OSMemTbl+0x78>
    80000580:	ecbc                	sd	a5,88(s1)
    80000582:	b8818793          	addi	a5,gp,-1144 # 90000928 <OSMemTbl+0xa0>
    80000586:	e0dc                	sd	a5,128(s1)
#if OS_MEM_NAME_EN > 0u
        pmem->OSMemName  = (INT8U *)(void *)"?";
    80000588:	f080                	sd	s0,32(s1)
    8000058a:	e4a0                	sd	s0,72(s1)
    8000058c:	f8a0                	sd	s0,112(s1)
    8000058e:	ecc0                	sd	s0,152(s1)
#endif
    }
    pmem                = &OSMemTbl[i];
    pmem->OSMemFreeList = (void *)0;                      /* Initialize last node                      */
#if OS_MEM_NAME_EN > 0u
    pmem->OSMemName = (INT8U *)(void *)"?";
    80000590:	e0e0                	sd	s0,192(s1)
    OS_Q    *pq1;
    OS_Q    *pq2;



    OS_MemClr((INT8U *)&OSQTbl[0], sizeof(OSQTbl));  /* Clear the queue table                          */
    80000592:	bb018493          	addi	s1,gp,-1104 # 90000950 <OSQTbl>
    80000596:	8526                	mv	a0,s1
    80000598:	0c000593          	li	a1,192
    pmem->OSMemFreeList = (void *)0;                      /* Initialize last node                      */
    8000059c:	b801b823          	sd	zero,-1136(gp) # 90000930 <OSMemTbl+0xa8>
    800005a0:	660000ef          	jal	ra,80000c00 <OS_MemClr>
    for (ix = 0u; ix < (OS_MAX_QS - 1u); ix++) {     /* Init. list of free QUEUE control blocks        */
        ix_next = ix + 1u;
        pq1 = &OSQTbl[ix];
        pq2 = &OSQTbl[ix_next];
        pq1->OSQPtr = pq2;
    800005a4:	be018793          	addi	a5,gp,-1056 # 90000980 <OSQTbl+0x30>
    800005a8:	e09c                	sd	a5,0(s1)
    800005aa:	c1018793          	addi	a5,gp,-1008 # 900009b0 <OSQTbl+0x60>
    800005ae:	f89c                	sd	a5,48(s1)
    800005b0:	c4018793          	addi	a5,gp,-960 # 900009e0 <OSQTbl+0x90>
    800005b4:	f0bc                	sd	a5,96(s1)
    (void)OSTaskCreateExt(OS_TaskIdle,
    800005b6:	64c1                	lui	s1,0x10
    800005b8:	10001717          	auipc	a4,0x10001
    800005bc:	2b870713          	addi	a4,a4,696 # 90001870 <OSTaskIdleStk>
    800005c0:	fff48693          	addi	a3,s1,-1 # ffff <main.c.38901d02+0x473>
    800005c4:	03f00613          	li	a2,63
    800005c8:	10001597          	auipc	a1,0x10001
    800005cc:	6a058593          	addi	a1,a1,1696 # 90001c68 <OSTaskIdleStk+0x3f8>
    800005d0:	00000517          	auipc	a0,0x0
    800005d4:	76450513          	addi	a0,a0,1892 # 80000d34 <OS_TaskIdle>
    }
    pq1         = &OSQTbl[ix];
    pq1->OSQPtr = (OS_Q *)0;
    800005d8:	c401b023          	sd	zero,-960(gp) # 900009e0 <OSQTbl+0x90>
    800005dc:	0e7000ef          	jal	ra,80000ec2 <OSTaskCreateExt.constprop.0>
    OSTaskNameSet(OS_TASK_IDLE_PRIO, (INT8U *)(void *)"uC/OS-II Idle", &err);
    800005e0:	00f10613          	addi	a2,sp,15
    800005e4:	10000597          	auipc	a1,0x10000
    800005e8:	b2458593          	addi	a1,a1,-1244 # 90000108 <_data+0x108>
    800005ec:	03f00513          	li	a0,63
    800005f0:	760000ef          	jal	ra,80000d50 <OSTaskNameSet>
    (void)OSTaskCreateExt(OS_TaskStat,
    800005f4:	ffe48693          	addi	a3,s1,-2
    800005f8:	10001717          	auipc	a4,0x10001
    800005fc:	67870713          	addi	a4,a4,1656 # 90001c70 <OSTaskStatStk>
    80000600:	03e00613          	li	a2,62
    80000604:	10002597          	auipc	a1,0x10002
    80000608:	a6458593          	addi	a1,a1,-1436 # 90002068 <OSTaskStatStk+0x3f8>
    8000060c:	00001517          	auipc	a0,0x1
    80000610:	f4e50513          	addi	a0,a0,-178 # 8000155a <OS_TaskStat>
    80000614:	0af000ef          	jal	ra,80000ec2 <OSTaskCreateExt.constprop.0>
    OSTaskNameSet(OS_TASK_STAT_PRIO, (INT8U *)(void *)"uC/OS-II Stat", &err);
    80000618:	00f10613          	addi	a2,sp,15
    8000061c:	10000597          	auipc	a1,0x10000
    80000620:	afc58593          	addi	a1,a1,-1284 # 90000118 <_data+0x118>
    80000624:	03e00513          	li	a0,62
    80000628:	728000ef          	jal	ra,80000d50 <OSTaskNameSet>
    INT16U   ix_next;
    OS_TMR  *ptmr1;
    OS_TMR  *ptmr2;


    OS_MemClr((INT8U *)&OSTmrTbl[0],      sizeof(OSTmrTbl));            /* Clear all the TMRs                         */
    8000062c:	48000593          	li	a1,1152
    80000630:	10002517          	auipc	a0,0x10002
    80000634:	e4050513          	addi	a0,a0,-448 # 90002470 <OSTmrTbl>
    80000638:	5c8000ef          	jal	ra,80000c00 <OS_MemClr>
    OS_MemClr((INT8U *)&OSTmrWheelTbl[0], sizeof(OSTmrWheelTbl));       /* Clear the timer wheel                      */
    8000063c:	08000593          	li	a1,128
    80000640:	10002517          	auipc	a0,0x10002
    80000644:	2b050513          	addi	a0,a0,688 # 900028f0 <OSTmrWheelTbl>
    80000648:	5b8000ef          	jal	ra,80000c00 <OS_MemClr>

    for (ix = 0u; ix < (OS_TMR_CFG_MAX - 1u); ix++) {                   /* Init. list of free TMRs                    */
    8000064c:	10002797          	auipc	a5,0x10002
    80000650:	e2478793          	addi	a5,a5,-476 # 90002470 <OSTmrTbl>
    80000654:	10002597          	auipc	a1,0x10002
    80000658:	25458593          	addi	a1,a1,596 # 900028a8 <OSTmrTbl+0x438>
    8000065c:	86be                	mv	a3,a5
        ix_next = ix + 1u;
        ptmr1 = &OSTmrTbl[ix];
        ptmr2 = &OSTmrTbl[ix_next];
        ptmr1->OSTmrType    = OS_TMR_TYPE;
    8000065e:	06400613          	li	a2,100
        ptmr2 = &OSTmrTbl[ix_next];
    80000662:	873e                	mv	a4,a5
    80000664:	04878793          	addi	a5,a5,72
        ptmr1->OSTmrType    = OS_TMR_TYPE;
    80000668:	00c70023          	sb	a2,0(a4)
        ptmr1->OSTmrState   = OS_TMR_STATE_UNUSED;                      /* Indicate that timer is inactive            */
    8000066c:	040700a3          	sb	zero,65(a4)
        ptmr1->OSTmrNext    = (void *)ptmr2;                            /* Link to next timer                         */
    80000670:	ef1c                	sd	a5,24(a4)
#if OS_TMR_CFG_NAME_EN > 0u
        ptmr1->OSTmrName    = (INT8U *)(void *)"?";
    80000672:	ff00                	sd	s0,56(a4)
    for (ix = 0u; ix < (OS_TMR_CFG_MAX - 1u); ix++) {                   /* Init. list of free TMRs                    */
    80000674:	fef597e3          	bne	a1,a5,80000662 <main+0x362>
#endif
    }
    ptmr1               = &OSTmrTbl[ix];
    ptmr1->OSTmrType    = OS_TMR_TYPE;
    80000678:	42c68c23          	sb	a2,1080(a3)
    ptmr1->OSTmrState   = OS_TMR_STATE_UNUSED;                          /* Indicate that timer is inactive            */
    ptmr1->OSTmrNext    = (void *)0;                                    /* Last OS_TMR                                */
#if OS_TMR_CFG_NAME_EN > 0u
    ptmr1->OSTmrName    = (INT8U *)(void *)"?";
    8000067c:	4686b823          	sd	s0,1136(a3)
#endif
    OSTmrTime           = 0u;
    OSTmrUsed           = 0u;
    OSTmrFree           = OS_TMR_CFG_MAX;
    OSTmrFreeList       = &OSTmrTbl[0];
    OSTmrSem            = OSSemCreate(1u);
    80000680:	4505                	li	a0,1
    ptmr1->OSTmrState   = OS_TMR_STATE_UNUSED;                          /* Indicate that timer is inactive            */
    80000682:	10002797          	auipc	a5,0x10002
    80000686:	260783a3          	sb	zero,615(a5) # 900028e9 <OSTmrTbl+0x479>
    ptmr1->OSTmrNext    = (void *)0;                                    /* Last OS_TMR                                */
    8000068a:	10002797          	auipc	a5,0x10002
    8000068e:	2207bb23          	sd	zero,566(a5) # 900028c0 <OSTmrTbl+0x450>
    OSTmrTime           = 0u;
    80000692:	10000797          	auipc	a5,0x10000
    80000696:	f807ab23          	sw	zero,-106(a5) # 90000628 <OSTmrTime>
    OSTmrSem            = OSSemCreate(1u);
    8000069a:	10000497          	auipc	s1,0x10000
    8000069e:	f7e48493          	addi	s1,s1,-130 # 90000618 <OSTmrSem>
    800006a2:	6fa000ef          	jal	ra,80000d9c <OSSemCreate>
    800006a6:	e088                	sd	a0,0(s1)
    OSTmrSemSignal      = OSSemCreate(0u);
    800006a8:	4501                	li	a0,0
    800006aa:	6f2000ef          	jal	ra,80000d9c <OSSemCreate>
    800006ae:	10000417          	auipc	s0,0x10000
    800006b2:	f7240413          	addi	s0,s0,-142 # 90000620 <OSTmrSemSignal>
    800006b6:	e008                	sd	a0,0(s0)

#if OS_EVENT_NAME_EN > 0u                                               /* Assign names to semaphores                 */
    OSEventNameSet(OSTmrSem,       (INT8U *)(void *)"uC/OS-II TmrLock",   &err);
    800006b8:	6088                	ld	a0,0(s1)
    800006ba:	00e10613          	addi	a2,sp,14
    800006be:	10000597          	auipc	a1,0x10000
    800006c2:	a6a58593          	addi	a1,a1,-1430 # 90000128 <_data+0x128>
    800006c6:	732000ef          	jal	ra,80000df8 <OSEventNameSet>
    OSEventNameSet(OSTmrSemSignal, (INT8U *)(void *)"uC/OS-II TmrSignal", &err);
    800006ca:	6008                	ld	a0,0(s0)
    800006cc:	00e10613          	addi	a2,sp,14
    800006d0:	10000597          	auipc	a1,0x10000
    800006d4:	a7058593          	addi	a1,a1,-1424 # 90000140 <_data+0x140>
    800006d8:	720000ef          	jal	ra,80000df8 <OSEventNameSet>
#endif


#if OS_TASK_CREATE_EXT_EN > 0u
    #if OS_STK_GROWTH == 1u
    (void)OSTaskCreateExt(OSTmr_Task,
    800006dc:	66c1                	lui	a3,0x10
    800006de:	10002717          	auipc	a4,0x10002
    800006e2:	99270713          	addi	a4,a4,-1646 # 90002070 <OSTmrTaskStk>
    800006e6:	16f5                	addi	a3,a3,-3
    800006e8:	03d00613          	li	a2,61
    800006ec:	10002597          	auipc	a1,0x10002
    800006f0:	d7c58593          	addi	a1,a1,-644 # 90002468 <OSTmrTaskStk+0x3f8>
    800006f4:	00001517          	auipc	a0,0x1
    800006f8:	a0050513          	addi	a0,a0,-1536 # 800010f4 <OSTmr_Task>
    800006fc:	7c6000ef          	jal	ra,80000ec2 <OSTaskCreateExt.constprop.0>
                       OS_TASK_TMR_PRIO);
    #endif
#endif

#if OS_TASK_NAME_EN > 0u
    OSTaskNameSet(OS_TASK_TMR_PRIO, (INT8U *)(void *)"uC/OS-II Tmr", &err);
    80000700:	00f10613          	addi	a2,sp,15
    80000704:	10000597          	auipc	a1,0x10000
    80000708:	a5458593          	addi	a1,a1,-1452 # 90000158 <_data+0x158>
    8000070c:	03d00513          	li	a0,61
    80000710:	640000ef          	jal	ra,80000d50 <OSTaskNameSet>
	prvSetupHardware();
	OSInit();
	OSTaskCreate(start_task,NULL,&start_stk[STK_LEN-1],TASK_START_PRIO);
    80000714:	4629                	li	a2,10
    80000716:	10004597          	auipc	a1,0x10004
    8000071a:	25258593          	addi	a1,a1,594 # 90004968 <start_stk+0x1ff8>
    8000071e:	00001517          	auipc	a0,0x1
    80000722:	de050513          	addi	a0,a0,-544 # 800014fe <start_task>
    80000726:	0c5000ef          	jal	ra,80000fea <OSTaskCreate.constprop.0>
	printf("create start task success \r\n");
    8000072a:	10000517          	auipc	a0,0x10000
    8000072e:	a3e50513          	addi	a0,a0,-1474 # 90000168 <_data+0x168>
    80000732:	1fd010ef          	jal	ra,8000212e <puts>
    if (OSRunning == OS_FALSE) {
    80000736:	10000797          	auipc	a5,0x10000
    8000073a:	eaa7c783          	lbu	a5,-342(a5) # 900005e0 <OSRunning>
    8000073e:	eb95                	bnez	a5,80000772 <main+0x472>
        OS_SchedNew();                               /* Find highest priority's task priority number   */
    80000740:	486000ef          	jal	ra,80000bc6 <OS_SchedNew>
        OSPrioCur     = OSPrioHighRdy;
    80000744:	10000797          	auipc	a5,0x10000
    80000748:	e8b7c783          	lbu	a5,-373(a5) # 900005cf <OSPrioHighRdy>
    8000074c:	10000717          	auipc	a4,0x10000
    80000750:	e8f70123          	sb	a5,-382(a4) # 900005ce <OSPrioCur>
        OSTCBHighRdy  = OSTCBPrioTbl[OSPrioHighRdy]; /* Point to highest priority task ready to run    */
    80000754:	c7018713          	addi	a4,gp,-912 # 90000a10 <OSTCBPrioTbl>
    80000758:	078e                	slli	a5,a5,0x3
    8000075a:	97ba                	add	a5,a5,a4
    8000075c:	639c                	ld	a5,0(a5)
    8000075e:	10000717          	auipc	a4,0x10000
    80000762:	e8f73d23          	sd	a5,-358(a4) # 900005f8 <OSTCBHighRdy>
        OSTCBCur      = OSTCBHighRdy;
    80000766:	10000717          	auipc	a4,0x10000
    8000076a:	e8f73123          	sd	a5,-382(a4) # 900005e8 <OSTCBCur>
        OSStartHighRdy();                            /* Execute target specific code to start task     */
    8000076e:	2b2000ef          	jal	ra,80000a20 <OSStartHighRdy>
	OSStart();
	while(1){}
    80000772:	a001                	j	80000772 <main+0x472>
	...

0000000080000800 <OS_CPU_SR_Save>:
#                 }
#********************************************************************************************************
	.align 8
OS_CPU_SR_Save:
# Save the Machine status register
    csrr   a0, mstatus
    80000800:	30002573          	csrr	a0,mstatus

# Disable global interupt
//RISCV_MSTATUS_MIE = 0x8 (0b1000) it is the bit of MIE in mstatus
    csrci mstatus,0x8
    80000804:	30047073          	csrci	mstatus,8
    ret
    80000808:	8082                	ret

000000008000080a <OS_CPU_SR_Restore>:

OS_CPU_SR_Restore:
# Restore the Machine status register previous state
    csrw   mstatus, a0
    8000080a:	30051073          	csrw	mstatus,a0
    ret
    8000080e:	8082                	ret
    80000810:	00000013          	nop
    80000814:	00000013          	nop
    80000818:	00000013          	nop
    8000081c:	00000013          	nop
    80000820:	00000013          	nop
    80000824:	00000013          	nop
    80000828:	00000013          	nop
    8000082c:	00000013          	nop
    80000830:	00000013          	nop
    80000834:	00000013          	nop
    80000838:	00000013          	nop
    8000083c:	00000013          	nop

0000000080000840 <trap_entry>:

.global trap_entry
.align 6
trap_entry:
	
    STORE_CTX_REG
    80000840:	7111                	addi	sp,sp,-256
    80000842:	e006                	sd	ra,0(sp)
    80000844:	f016                	sd	t0,32(sp)
    80000846:	f41a                	sd	t1,40(sp)
    80000848:	f81e                	sd	t2,48(sp)
    8000084a:	fc22                	sd	s0,56(sp)
    8000084c:	e0a6                	sd	s1,64(sp)
    8000084e:	e4aa                	sd	a0,72(sp)
    80000850:	e8ae                	sd	a1,80(sp)
    80000852:	ecb2                	sd	a2,88(sp)
    80000854:	f0b6                	sd	a3,96(sp)
    80000856:	f4ba                	sd	a4,104(sp)
    80000858:	f8be                	sd	a5,112(sp)
    8000085a:	fcc2                	sd	a6,120(sp)
    8000085c:	e146                	sd	a7,128(sp)
    8000085e:	e54a                	sd	s2,136(sp)
    80000860:	e94e                	sd	s3,144(sp)
    80000862:	ed52                	sd	s4,152(sp)
    80000864:	f156                	sd	s5,160(sp)
    80000866:	f55a                	sd	s6,168(sp)
    80000868:	f95e                	sd	s7,176(sp)
    8000086a:	fd62                	sd	s8,184(sp)
    8000086c:	e1e6                	sd	s9,192(sp)
    8000086e:	e5ea                	sd	s10,200(sp)
    80000870:	e9ee                	sd	s11,208(sp)
    80000872:	edf2                	sd	t3,216(sp)
    80000874:	f1f6                	sd	t4,224(sp)
    80000876:	f5fa                	sd	t5,232(sp)
    80000878:	f9fe                	sd	t6,240(sp)
    
    csrr t0,mstatus 
    8000087a:	300022f3          	csrr	t0,mstatus
    STORE t0,1*REGBYTES(sp)
    8000087e:	e416                	sd	t0,8(sp)

    //call xlen_t trap_handler(mcause,mepc,sp);
    csrr a0,mcause
    80000880:	34202573          	csrr	a0,mcause
    csrr a1,mepc
    80000884:	341025f3          	csrr	a1,mepc
    mv a2,sp
    80000888:	860a                	mv	a2,sp
    jal trap_handler
    8000088a:	2d0010ef          	jal	ra,80001b5a <trap_handler>
    csrw mepc,a0
    8000088e:	34151073          	csrw	mepc,a0
    
    LOAD t0,1*REGBYTES(sp)
    80000892:	62a2                	ld	t0,8(sp)
    csrw mstatus,t0
    80000894:	30029073          	csrw	mstatus,t0
    
    LOAD_CTX_REG
    80000898:	6082                	ld	ra,0(sp)
    8000089a:	7282                	ld	t0,32(sp)
    8000089c:	7322                	ld	t1,40(sp)
    8000089e:	73c2                	ld	t2,48(sp)
    800008a0:	7462                	ld	s0,56(sp)
    800008a2:	6486                	ld	s1,64(sp)
    800008a4:	6526                	ld	a0,72(sp)
    800008a6:	65c6                	ld	a1,80(sp)
    800008a8:	6666                	ld	a2,88(sp)
    800008aa:	7686                	ld	a3,96(sp)
    800008ac:	7726                	ld	a4,104(sp)
    800008ae:	77c6                	ld	a5,112(sp)
    800008b0:	7866                	ld	a6,120(sp)
    800008b2:	688a                	ld	a7,128(sp)
    800008b4:	692a                	ld	s2,136(sp)
    800008b6:	69ca                	ld	s3,144(sp)
    800008b8:	6a6a                	ld	s4,152(sp)
    800008ba:	7a8a                	ld	s5,160(sp)
    800008bc:	7b2a                	ld	s6,168(sp)
    800008be:	7bca                	ld	s7,176(sp)
    800008c0:	7c6a                	ld	s8,184(sp)
    800008c2:	6c8e                	ld	s9,192(sp)
    800008c4:	6d2e                	ld	s10,200(sp)
    800008c6:	6dce                	ld	s11,208(sp)
    800008c8:	6e6e                	ld	t3,216(sp)
    800008ca:	7e8e                	ld	t4,224(sp)
    800008cc:	7f2e                	ld	t5,232(sp)
    800008ce:	7fce                	ld	t6,240(sp)
    800008d0:	6111                	addi	sp,sp,256
    
    mret
    800008d2:	30200073          	mret
    800008d6:	0001                	nop

00000000800008d8 <eclic_mtip_handler>:

.align 2
.globl MTIME_HANDLER
MTIME_HANDLER:   

    STORE_CTX_REG
    800008d8:	7111                	addi	sp,sp,-256
    800008da:	e006                	sd	ra,0(sp)
    800008dc:	f016                	sd	t0,32(sp)
    800008de:	f41a                	sd	t1,40(sp)
    800008e0:	f81e                	sd	t2,48(sp)
    800008e2:	fc22                	sd	s0,56(sp)
    800008e4:	e0a6                	sd	s1,64(sp)
    800008e6:	e4aa                	sd	a0,72(sp)
    800008e8:	e8ae                	sd	a1,80(sp)
    800008ea:	ecb2                	sd	a2,88(sp)
    800008ec:	f0b6                	sd	a3,96(sp)
    800008ee:	f4ba                	sd	a4,104(sp)
    800008f0:	f8be                	sd	a5,112(sp)
    800008f2:	fcc2                	sd	a6,120(sp)
    800008f4:	e146                	sd	a7,128(sp)
    800008f6:	e54a                	sd	s2,136(sp)
    800008f8:	e94e                	sd	s3,144(sp)
    800008fa:	ed52                	sd	s4,152(sp)
    800008fc:	f156                	sd	s5,160(sp)
    800008fe:	f55a                	sd	s6,168(sp)
    80000900:	f95e                	sd	s7,176(sp)
    80000902:	fd62                	sd	s8,184(sp)
    80000904:	e1e6                	sd	s9,192(sp)
    80000906:	e5ea                	sd	s10,200(sp)
    80000908:	e9ee                	sd	s11,208(sp)
    8000090a:	edf2                	sd	t3,216(sp)
    8000090c:	f1f6                	sd	t4,224(sp)
    8000090e:	f5fa                	sd	t5,232(sp)
    80000910:	f9fe                	sd	t6,240(sp)
    
    csrr t0,mstatus 
    80000912:	300022f3          	csrr	t0,mstatus
    STORE t0,1*REGBYTES(sp)
    80000916:	e416                	sd	t0,8(sp)


    csrr a0,mcause
    80000918:	34202573          	csrr	a0,mcause
    csrr a1,mepc
    8000091c:	341025f3          	csrr	a1,mepc
    mv a2,sp
    80000920:	860a                	mv	a2,sp
    jal timer_irq_handler
    80000922:	6ef000ef          	jal	ra,80001810 <timer_irq_handler>
    csrw mepc,a0
    80000926:	34151073          	csrw	mepc,a0
    
    LOAD t0,1*REGBYTES(sp)
    8000092a:	62a2                	ld	t0,8(sp)
    csrw mstatus,t0
    8000092c:	30029073          	csrw	mstatus,t0
    
    LOAD_CTX_REG
    80000930:	6082                	ld	ra,0(sp)
    80000932:	7282                	ld	t0,32(sp)
    80000934:	7322                	ld	t1,40(sp)
    80000936:	73c2                	ld	t2,48(sp)
    80000938:	7462                	ld	s0,56(sp)
    8000093a:	6486                	ld	s1,64(sp)
    8000093c:	6526                	ld	a0,72(sp)
    8000093e:	65c6                	ld	a1,80(sp)
    80000940:	6666                	ld	a2,88(sp)
    80000942:	7686                	ld	a3,96(sp)
    80000944:	7726                	ld	a4,104(sp)
    80000946:	77c6                	ld	a5,112(sp)
    80000948:	7866                	ld	a6,120(sp)
    8000094a:	688a                	ld	a7,128(sp)
    8000094c:	692a                	ld	s2,136(sp)
    8000094e:	69ca                	ld	s3,144(sp)
    80000950:	6a6a                	ld	s4,152(sp)
    80000952:	7a8a                	ld	s5,160(sp)
    80000954:	7b2a                	ld	s6,168(sp)
    80000956:	7bca                	ld	s7,176(sp)
    80000958:	7c6a                	ld	s8,184(sp)
    8000095a:	6c8e                	ld	s9,192(sp)
    8000095c:	6d2e                	ld	s10,200(sp)
    8000095e:	6dce                	ld	s11,208(sp)
    80000960:	6e6e                	ld	t3,216(sp)
    80000962:	7e8e                	ld	t4,224(sp)
    80000964:	7f2e                	ld	t5,232(sp)
    80000966:	7fce                	ld	t6,240(sp)
    80000968:	6111                	addi	sp,sp,256
	
	mret 
    8000096a:	30200073          	mret

000000008000096e <task_switch>:
    
.global task_switch
task_switch:
	//restore sp when trap occur ,it's important
	mv sp,a0
    8000096e:	812a                	mv	sp,a0
	
	//then store sp
	la t0,OSTCBCur
    80000970:	10000297          	auipc	t0,0x10000
    80000974:	c7828293          	addi	t0,t0,-904 # 900005e8 <OSTCBCur>
	LOAD t1,0(t0)
    80000978:	0002b303          	ld	t1,0(t0)
	STORE sp,0(t1)
    8000097c:	00233023          	sd	sp,0(t1)
	
	jal OSTaskSwHook
    80000980:	603000ef          	jal	ra,80001782 <OSTaskSwHook>
	
	//load OSTCBCur
	la t0,OSTCBHighRdy
    80000984:	10000297          	auipc	t0,0x10000
    80000988:	c7428293          	addi	t0,t0,-908 # 900005f8 <OSTCBHighRdy>
	LOAD t1,0(t0)
    8000098c:	0002b303          	ld	t1,0(t0)
	la t0,OSTCBCur
    80000990:	10000297          	auipc	t0,0x10000
    80000994:	c5828293          	addi	t0,t0,-936 # 900005e8 <OSTCBCur>
	STORE t1,0(t0)
    80000998:	0062b023          	sd	t1,0(t0)
	
	//load OSPrioCur
	la t0,OSPrioHighRdy //uint8
    8000099c:	10000297          	auipc	t0,0x10000
    800009a0:	c3328293          	addi	t0,t0,-973 # 900005cf <OSPrioHighRdy>
	lbu t1,0(t0)
    800009a4:	0002c303          	lbu	t1,0(t0)
	la t0,OSPrioCur //uint8
    800009a8:	10000297          	auipc	t0,0x10000
    800009ac:	c2628293          	addi	t0,t0,-986 # 900005ce <OSPrioCur>
	sb t1,0(t0)
    800009b0:	00628023          	sb	t1,0(t0)
	
	//load new sp
	la     t0, OSTCBHighRdy
    800009b4:	10000297          	auipc	t0,0x10000
    800009b8:	c4428293          	addi	t0,t0,-956 # 900005f8 <OSTCBHighRdy>
    LOAD   t1, 0(t0)
    800009bc:	0002b303          	ld	t1,0(t0)
    LOAD   sp, 0(t1) //load sp
    800009c0:	00033103          	ld	sp,0(t1)
	
	//restore context
	LOAD t0,31*REGBYTES(sp)
    800009c4:	72ee                	ld	t0,248(sp)
	csrw mepc,t0
    800009c6:	34129073          	csrw	mepc,t0
	LOAD t0,1*REGBYTES(sp)
    800009ca:	62a2                	ld	t0,8(sp)
	csrs mstatus,t0
    800009cc:	3002a073          	csrs	mstatus,t0
	
	LOAD_CTX_REG
    800009d0:	6082                	ld	ra,0(sp)
    800009d2:	7282                	ld	t0,32(sp)
    800009d4:	7322                	ld	t1,40(sp)
    800009d6:	73c2                	ld	t2,48(sp)
    800009d8:	7462                	ld	s0,56(sp)
    800009da:	6486                	ld	s1,64(sp)
    800009dc:	6526                	ld	a0,72(sp)
    800009de:	65c6                	ld	a1,80(sp)
    800009e0:	6666                	ld	a2,88(sp)
    800009e2:	7686                	ld	a3,96(sp)
    800009e4:	7726                	ld	a4,104(sp)
    800009e6:	77c6                	ld	a5,112(sp)
    800009e8:	7866                	ld	a6,120(sp)
    800009ea:	688a                	ld	a7,128(sp)
    800009ec:	692a                	ld	s2,136(sp)
    800009ee:	69ca                	ld	s3,144(sp)
    800009f0:	6a6a                	ld	s4,152(sp)
    800009f2:	7a8a                	ld	s5,160(sp)
    800009f4:	7b2a                	ld	s6,168(sp)
    800009f6:	7bca                	ld	s7,176(sp)
    800009f8:	7c6a                	ld	s8,184(sp)
    800009fa:	6c8e                	ld	s9,192(sp)
    800009fc:	6d2e                	ld	s10,200(sp)
    800009fe:	6dce                	ld	s11,208(sp)
    80000a00:	6e6e                	ld	t3,216(sp)
    80000a02:	7e8e                	ld	t4,224(sp)
    80000a04:	7f2e                	ld	t5,232(sp)
    80000a06:	7fce                	ld	t6,240(sp)
    80000a08:	6111                	addi	sp,sp,256

	mret
    80000a0a:	30200073          	mret
    80000a0e:	0001                	nop

0000000080000a10 <cpu_sr_set>:
	
	.global cpu_sr_set
	.align 4
cpu_sr_set:
	csrr a0,mstatus
    80000a10:	30002573          	csrr	a0,mstatus
	csrci mstatus,0x8
    80000a14:	30047073          	csrci	mstatus,8
	ret 
    80000a18:	8082                	ret

0000000080000a1a <cpu_sr_reset>:
	
	.global cpu_sr_reset
cpu_sr_reset:
	csrw mstatus,a0
    80000a1a:	30051073          	csrw	mstatus,a0
	ret 
    80000a1e:	8082                	ret

0000000080000a20 <OSStartHighRdy>:

//this function don't set mstauts. So the first task should let user to enable global interrupt 
OSStartHighRdy:

	//call OSTaskSwHook
    jal    OSTaskSwHook
    80000a20:	563000ef          	jal	ra,80001782 <OSTaskSwHook>

	//OSRunning=1
    li     t0, 0x01
    80000a24:	4285                	li	t0,1
    la     t1, OSRunning
    80000a26:	10000317          	auipc	t1,0x10000
    80000a2a:	bba30313          	addi	t1,t1,-1094 # 900005e0 <OSRunning>
    sb     t0, 0(t1)
    80000a2e:	00530023          	sb	t0,0(t1)


    la     t0, OSTCBHighRdy
    80000a32:	10000297          	auipc	t0,0x10000
    80000a36:	bc628293          	addi	t0,t0,-1082 # 900005f8 <OSTCBHighRdy>
    LOAD   t1, 0(t0)
    80000a3a:	0002b303          	ld	t1,0(t0)
    LOAD   sp, 0(t1) //load sp
    80000a3e:	00033103          	ld	sp,0(t1)
	
	LOAD t0,31*REGBYTES(sp)
    80000a42:	72ee                	ld	t0,248(sp)
	csrw mepc,t0
    80000a44:	34129073          	csrw	mepc,t0

	jal		TickSetup
    80000a48:	0c6010ef          	jal	ra,80001b0e <TickSetup>

	
    LOAD_CTX_REG
    80000a4c:	6082                	ld	ra,0(sp)
    80000a4e:	7282                	ld	t0,32(sp)
    80000a50:	7322                	ld	t1,40(sp)
    80000a52:	73c2                	ld	t2,48(sp)
    80000a54:	7462                	ld	s0,56(sp)
    80000a56:	6486                	ld	s1,64(sp)
    80000a58:	6526                	ld	a0,72(sp)
    80000a5a:	65c6                	ld	a1,80(sp)
    80000a5c:	6666                	ld	a2,88(sp)
    80000a5e:	7686                	ld	a3,96(sp)
    80000a60:	7726                	ld	a4,104(sp)
    80000a62:	77c6                	ld	a5,112(sp)
    80000a64:	7866                	ld	a6,120(sp)
    80000a66:	688a                	ld	a7,128(sp)
    80000a68:	692a                	ld	s2,136(sp)
    80000a6a:	69ca                	ld	s3,144(sp)
    80000a6c:	6a6a                	ld	s4,152(sp)
    80000a6e:	7a8a                	ld	s5,160(sp)
    80000a70:	7b2a                	ld	s6,168(sp)
    80000a72:	7bca                	ld	s7,176(sp)
    80000a74:	7c6a                	ld	s8,184(sp)
    80000a76:	6c8e                	ld	s9,192(sp)
    80000a78:	6d2e                	ld	s10,200(sp)
    80000a7a:	6dce                	ld	s11,208(sp)
    80000a7c:	6e6e                	ld	t3,216(sp)
    80000a7e:	7e8e                	ld	t4,224(sp)
    80000a80:	7f2e                	ld	t5,232(sp)
    80000a82:	7fce                	ld	t6,240(sp)
    80000a84:	6111                	addi	sp,sp,256
	//run task 
    mret
    80000a86:	30200073          	mret
    80000a8a:	00000013          	nop
    80000a8e:	0001                	nop

0000000080000a90 <OSCtxSw>:

	.align 4

OSCtxSw:
	j  scheduler_ecall 
    80000a90:	0c00106f          	j	80001b50 <scheduler_ecall>
	ret 
    80000a94:	8082                	ret

0000000080000a96 <OSIntCtxSw>:

//never be used! 
// delete it in OSIntexit
OSIntCtxSw:
	
	j scheduler_ecall//task_switch
    80000a96:	0ba0106f          	j	80001b50 <scheduler_ecall>
	...

0000000080000ae0 <irq_entry>:
.weak irq_entry
irq_entry: // -------------> This label will be set to MTVT2 register
  // Allocate the stack space
  

  SAVE_CONTEXT// Save 16 regs
    80000ae0:	7135                	addi	sp,sp,-160
    80000ae2:	e006                	sd	ra,0(sp)
    80000ae4:	e412                	sd	tp,8(sp)
    80000ae6:	e816                	sd	t0,16(sp)
    80000ae8:	ec1a                	sd	t1,24(sp)
    80000aea:	f01e                	sd	t2,32(sp)
    80000aec:	f42a                	sd	a0,40(sp)
    80000aee:	f82e                	sd	a1,48(sp)
    80000af0:	fc32                	sd	a2,56(sp)
    80000af2:	e0b6                	sd	a3,64(sp)
    80000af4:	e4ba                	sd	a4,72(sp)
    80000af6:	e8be                	sd	a5,80(sp)
    80000af8:	ecc2                	sd	a6,88(sp)
    80000afa:	f0c6                	sd	a7,96(sp)
    80000afc:	f4f2                	sd	t3,104(sp)
    80000afe:	f8f6                	sd	t4,112(sp)
    80000b00:	fcfa                	sd	t5,120(sp)
    80000b02:	e17e                	sd	t6,128(sp)

  //------This special CSR read operation, which is actually use mcause as operand to directly store it to memory
  csrrwi  x0, CSR_PUSHMCAUSE, 17
    80000b04:	7ee8d073          	csrwi	0x7ee,17
  //------This special CSR read operation, which is actually use mepc as operand to directly store it to memory
  csrrwi  x0, CSR_PUSHMEPC, 18
    80000b08:	7ef95073          	csrwi	0x7ef,18
  //------This special CSR read operation, which is actually use Msubm as operand to directly store it to memory
  csrrwi  x0, CSR_PUSHMSUBM, 19
    80000b0c:	7eb9d073          	csrwi	0x7eb,19

0000000080000b10 <service_loop>:
 
service_loop:
  //------This special CSR read/write operation, which is actually Claim the CLIC to find its pending highest
  // ID, if the ID is not 0, then automatically enable the mstatus.MIE, and jump to its vector-entry-label, and
  // update the link register 
  csrrw ra, CSR_JALMNXTI, ra 
    80000b10:	7ed090f3          	csrrw	ra,0x7ed,ra
  
  //RESTORE_CONTEXT_EXCPT_X5

  #---- Critical section with interrupts disabled -----------------------
  DISABLE_MIE # Disable interrupts 
    80000b14:	30047073          	csrci	mstatus,8

  LOAD x5,  19*REGBYTES(sp)
    80000b18:	62ea                	ld	t0,152(sp)
  csrw CSR_MSUBM, x5  
    80000b1a:	7c429073          	csrw	0x7c4,t0
  LOAD x5,  18*REGBYTES(sp)
    80000b1e:	62ca                	ld	t0,144(sp)
  csrw CSR_MEPC, x5  
    80000b20:	34129073          	csrw	mepc,t0
  LOAD x5,  17*REGBYTES(sp)
    80000b24:	62aa                	ld	t0,136(sp)
  csrw CSR_MCAUSE, x5  
    80000b26:	34229073          	csrw	mcause,t0


  RESTORE_CONTEXT
    80000b2a:	6082                	ld	ra,0(sp)
    80000b2c:	6222                	ld	tp,8(sp)
    80000b2e:	62c2                	ld	t0,16(sp)
    80000b30:	6362                	ld	t1,24(sp)
    80000b32:	7382                	ld	t2,32(sp)
    80000b34:	7522                	ld	a0,40(sp)
    80000b36:	75c2                	ld	a1,48(sp)
    80000b38:	7662                	ld	a2,56(sp)
    80000b3a:	6686                	ld	a3,64(sp)
    80000b3c:	6726                	ld	a4,72(sp)
    80000b3e:	67c6                	ld	a5,80(sp)
    80000b40:	6866                	ld	a6,88(sp)
    80000b42:	7886                	ld	a7,96(sp)
    80000b44:	7e26                	ld	t3,104(sp)
    80000b46:	7ec6                	ld	t4,112(sp)
    80000b48:	7f66                	ld	t5,120(sp)
    80000b4a:	6f8a                	ld	t6,128(sp)
    80000b4c:	610d                	addi	sp,sp,160

  
  // Return to regular code
  mret
    80000b4e:	30200073          	mret

0000000080000b52 <wait_seconds.constprop.0>:
  return *(volatile uint32_t *)(TIMER_CTRL_ADDR + TIMER_MTIME);
    80000b52:	020007b7          	lui	a5,0x2000
    80000b56:	4398                	lw	a4,0(a5)
    80000b58:	020006b7          	lui	a3,0x2000
    80000b5c:	2701                	sext.w	a4,a4
    80000b5e:	429c                	lw	a5,0(a3)
    80000b60:	2781                	sext.w	a5,a5
  } while (start_mtime == tmp);
    80000b62:	fef70ee3          	beq	a4,a5,80000b5e <wait_seconds.constprop.0+0xc>
    start_mtime = mtime_lo();
    80000b66:	1782                	slli	a5,a5,0x20
    80000b68:	02000637          	lui	a2,0x2000
    80000b6c:	9381                	srli	a5,a5,0x20
  } while (delta_mtime < (n * TIMER_FREQ));
    80000b6e:	000286b7          	lui	a3,0x28
    80000b72:	4218                	lw	a4,0(a2)
    delta_mtime = mtime_lo() - start_mtime;
    80000b74:	1702                	slli	a4,a4,0x20
    80000b76:	9301                	srli	a4,a4,0x20
    80000b78:	8f1d                	sub	a4,a4,a5
  } while (delta_mtime < (n * TIMER_FREQ));
    80000b7a:	fed76ce3          	bltu	a4,a3,80000b72 <wait_seconds.constprop.0+0x20>
}
    80000b7e:	8082                	ret

0000000080000b80 <measure_cpu_freq>:
    80000b80:	020007b7          	lui	a5,0x2000
    80000b84:	439c                	lw	a5,0(a5)
    80000b86:	020006b7          	lui	a3,0x2000
    80000b8a:	2781                	sext.w	a5,a5
    80000b8c:	4298                	lw	a4,0(a3)
    80000b8e:	2701                	sext.w	a4,a4
  } while (start_mtime == tmp);
    80000b90:	fee78ee3          	beq	a5,a4,80000b8c <measure_cpu_freq+0xc>
  uint64_t start_mcycle = read_csr(mcycle);
    80000b94:	b0002673          	csrr	a2,mcycle
  return *(volatile uint32_t *)(TIMER_CTRL_ADDR + TIMER_MTIME);
    80000b98:	020005b7          	lui	a1,0x2000
    80000b9c:	419c                	lw	a5,0(a1)
    delta_mtime = mtime_lo() - start_mtime;
    80000b9e:	9f99                	subw	a5,a5,a4
  } while (delta_mtime < n);
    80000ba0:	02079693          	slli	a3,a5,0x20
    80000ba4:	9281                	srli	a3,a3,0x20
    80000ba6:	fea6ebe3          	bltu	a3,a0,80000b9c <measure_cpu_freq+0x1c>
  uint64_t delta_mcycle = read_csr(mcycle) - start_mcycle;
    80000baa:	b0002773          	csrr	a4,mcycle
    80000bae:	40c707b3          	sub	a5,a4,a2
         + ((delta_mcycle % delta_mtime) * mtime_freq) / delta_mtime;
    80000bb2:	02d7f533          	remu	a0,a5,a3
  return (delta_mcycle / delta_mtime) * mtime_freq
    80000bb6:	02d7d7b3          	divu	a5,a5,a3
         + ((delta_mcycle % delta_mtime) * mtime_freq) / delta_mtime;
    80000bba:	053e                	slli	a0,a0,0xf
    80000bbc:	02d55533          	divu	a0,a0,a3
  return (delta_mcycle / delta_mtime) * mtime_freq
    80000bc0:	07be                	slli	a5,a5,0xf
}
    80000bc2:	953e                	add	a0,a0,a5
    80000bc4:	8082                	ret

0000000080000bc6 <OS_SchedNew>:
{
#if OS_LOWEST_PRIO <= 63u                        /* See if we support up to 64 tasks                   */
    INT8U   y;


    y             = OSUnMapTbl[OSRdyGrp];
    80000bc6:	0ffff717          	auipc	a4,0xffff
    80000bca:	6e270713          	addi	a4,a4,1762 # 900002a8 <OSUnMapTbl>
    80000bce:	10000797          	auipc	a5,0x10000
    80000bd2:	a027c783          	lbu	a5,-1534(a5) # 900005d0 <OSRdyGrp>
    80000bd6:	97ba                	add	a5,a5,a4
    80000bd8:	0007c783          	lbu	a5,0(a5)
    OSPrioHighRdy = (INT8U)((y << 3u) + OSUnMapTbl[OSRdyTbl[y]]);
    80000bdc:	10000697          	auipc	a3,0x10000
    80000be0:	9fc68693          	addi	a3,a3,-1540 # 900005d8 <OSRdyTbl>
    80000be4:	96be                	add	a3,a3,a5
    80000be6:	0006c683          	lbu	a3,0(a3)
    80000bea:	0037979b          	slliw	a5,a5,0x3
    80000bee:	9736                	add	a4,a4,a3
    80000bf0:	00074703          	lbu	a4,0(a4)
    80000bf4:	9fb9                	addw	a5,a5,a4
    80000bf6:	10000717          	auipc	a4,0x10000
    80000bfa:	9cf70ca3          	sb	a5,-1575(a4) # 900005cf <OSPrioHighRdy>
        OSPrioHighRdy = (INT8U)((y << 4u) + OSUnMapTbl[(*ptbl & 0xFFu)]);
    } else {
        OSPrioHighRdy = (INT8U)((y << 4u) + OSUnMapTbl[(OS_PRIO)(*ptbl >> 8u) & 0xFFu] + 8u);
    }
#endif
}
    80000bfe:	8082                	ret

0000000080000c00 <OS_MemClr>:
{
    80000c00:	872a                	mv	a4,a0
        *pdest++ = (INT8U)0;
    80000c02:	0705                	addi	a4,a4,1
    80000c04:	40e587bb          	subw	a5,a1,a4
    while (size > 0u) {
    80000c08:	9fa9                	addw	a5,a5,a0
    80000c0a:	17c2                	slli	a5,a5,0x30
    80000c0c:	93c1                	srli	a5,a5,0x30
        *pdest++ = (INT8U)0;
    80000c0e:	fe070fa3          	sb	zero,-1(a4)
    while (size > 0u) {
    80000c12:	fbe5                	bnez	a5,80000c02 <OS_MemClr+0x2>
}
    80000c14:	8082                	ret

0000000080000c16 <OS_TCBInit.constprop.0>:
*
* Note       : This function is INTERNAL to uC/OS-II and your application should not call it.
*********************************************************************************************************
*/

INT8U  OS_TCBInit (INT8U    prio,
    80000c16:	5be022ef          	jal	t0,800031d4 <__riscv_save_6>
    80000c1a:	89be                	mv	s3,a5
    80000c1c:	84aa                	mv	s1,a0
    80000c1e:	8b2e                	mv	s6,a1
    80000c20:	8a32                	mv	s4,a2
    80000c22:	8936                	mv	s2,a3
    80000c24:	8aba                	mv	s5,a4
#if OS_TASK_REG_TBL_SIZE > 0u
    INT8U      i;
#endif


    OS_ENTER_CRITICAL();
    80000c26:	bdbff0ef          	jal	ra,80000800 <OS_CPU_SR_Save>
    ptcb = OSTCBFreeList;                                  /* Get a free TCB from the free TCB list    */
    80000c2a:	10000797          	auipc	a5,0x10000
    80000c2e:	9c678793          	addi	a5,a5,-1594 # 900005f0 <OSTCBFreeList>
    80000c32:	6380                	ld	s0,0(a5)
    if (ptcb != (OS_TCB *)0) {
    80000c34:	0e040b63          	beqz	s0,80000d2a <OS_TCBInit.constprop.0+0x114>
        OSTCBFreeList            = ptcb->OSTCBNext;        /* Update pointer to free TCB list          */
    80000c38:	7018                	ld	a4,32(s0)
    80000c3a:	e398                	sd	a4,0(a5)
        OS_EXIT_CRITICAL();
    80000c3c:	bcfff0ef          	jal	ra,8000080a <OS_CPU_SR_Restore>
        ptcb->OSTCBDelReq        = OS_ERR_NONE;
#endif

#if OS_LOWEST_PRIO <= 63u                                         /* Pre-compute X, Y                  */
        ptcb->OSTCBY             = (INT8U)(prio >> 3u);
        ptcb->OSTCBX             = (INT8U)(prio & 0x07u);
    80000c40:	0074f693          	andi	a3,s1,7
        ptcb->OSTCBY             = (INT8U)(prio >> 3u);
    80000c44:	0034d713          	srli	a4,s1,0x3
#else                                                             /* Pre-compute X, Y                  */
        ptcb->OSTCBY             = (INT8U)((INT8U)(prio >> 4u) & 0xFFu);
        ptcb->OSTCBX             = (INT8U) (prio & 0x0Fu);
#endif
                                                                  /* Pre-compute BitX and BitY         */
        ptcb->OSTCBBitY          = (OS_PRIO)(1uL << ptcb->OSTCBY);
    80000c48:	4785                	li	a5,1
        ptcb->OSTCBY             = (INT8U)(prio >> 3u);
    80000c4a:	04e40e23          	sb	a4,92(s0)
        ptcb->OSTCBBitY          = (OS_PRIO)(1uL << ptcb->OSTCBY);
    80000c4e:	00e79733          	sll	a4,a5,a4
        ptcb->OSTCBBitX          = (OS_PRIO)(1uL << ptcb->OSTCBX);
    80000c52:	00d797b3          	sll	a5,a5,a3
    80000c56:	04f40ea3          	sb	a5,93(s0)
        ptcb->OSTCBStkBase     = (OS_STK *)0;
        ptcb->OSTCBStkUsed     = 0uL;
#endif

#if OS_TASK_NAME_EN > 0u
        ptcb->OSTCBTaskName    = (INT8U *)(void *)"?";
    80000c5a:	0ffff797          	auipc	a5,0xffff
    80000c5e:	3a678793          	addi	a5,a5,934 # 90000000 <_data>
        ptcb->OSTCBPrio          = prio;                   /* Load task priority into TCB              */
    80000c62:	04940d23          	sb	s1,90(s0)
        ptcb->OSTCBBitY          = (OS_PRIO)(1uL << ptcb->OSTCBY);
    80000c66:	04e40f23          	sb	a4,94(s0)
        ptcb->OSTCBTaskName    = (INT8U *)(void *)"?";
    80000c6a:	e05c                	sd	a5,128(s0)
        ptcb->OSTCBStkPtr        = ptos;                   /* Load Stack pointer in TCB                */
    80000c6c:	01643023          	sd	s6,0(s0)
        ptcb->OSTCBDly           = 0u;                     /* Task is not delayed                      */
    80000c70:	04042a23          	sw	zero,84(s0)
        ptcb->OSTCBStat          = OS_STAT_RDY;            /* Task is ready to run                     */
    80000c74:	04041c23          	sh	zero,88(s0)
        ptcb->OSTCBExtPtr        = pext;                   /* Store pointer to TCB extension           */
    80000c78:	00043423          	sd	zero,8(s0)
        ptcb->OSTCBStkSize       = stk_size;               /* Store stack size                         */
    80000c7c:	01542c23          	sw	s5,24(s0)
        ptcb->OSTCBStkBottom     = pbos;                   /* Store pointer to bottom of stack         */
    80000c80:	01443823          	sd	s4,16(s0)
        ptcb->OSTCBOpt           = opt;                    /* Store task options                       */
    80000c84:	01341e23          	sh	s3,28(s0)
        ptcb->OSTCBId            = id;                     /* Store task ID                            */
    80000c88:	01241f23          	sh	s2,30(s0)
        ptcb->OSTCBX             = (INT8U)(prio & 0x07u);
    80000c8c:	04d40da3          	sb	a3,91(s0)
        ptcb->OSTCBEventPtr      = (OS_EVENT  *)0;         /* Task is not pending on an  event         */
    80000c90:	02043823          	sd	zero,48(s0)
        ptcb->OSTCBEventMultiPtr = (OS_EVENT **)0;         /* Task is not pending on any events        */
    80000c94:	02043c23          	sd	zero,56(s0)
        ptcb->OSTCBFlagNode  = (OS_FLAG_NODE *)0;          /* Task is not pending on an event flag     */
    80000c98:	04043423          	sd	zero,72(s0)
        ptcb->OSTCBMsg       = (void *)0;                  /* No message received                      */
    80000c9c:	04043023          	sd	zero,64(s0)
        ptcb->OSTCBDelReq        = OS_ERR_NONE;
    80000ca0:	04040fa3          	sb	zero,95(s0)
        ptcb->OSTCBCtxSwCtr    = 0uL;                      /* Initialize profiling variables           */
    80000ca4:	06043023          	sd	zero,96(s0)
        ptcb->OSTCBCyclesStart = 0uL;
    80000ca8:	06042423          	sw	zero,104(s0)
        ptcb->OSTCBStkBase     = (OS_STK *)0;
    80000cac:	06043823          	sd	zero,112(s0)
        ptcb->OSTCBStkUsed     = 0uL;
    80000cb0:	06042c23          	sw	zero,120(s0)
#endif

#if OS_TASK_REG_TBL_SIZE > 0u                              /* Initialize the task variables            */
        for (i = 0u; i < OS_TASK_REG_TBL_SIZE; i++) {
            ptcb->OSTCBRegTbl[i] = 0u;
    80000cb4:	08042423          	sw	zero,136(s0)

        OSTCBInitHook(ptcb);

        OSTaskCreateHook(ptcb);                            /* Call user defined hook                   */

        OS_ENTER_CRITICAL();
    80000cb8:	b49ff0ef          	jal	ra,80000800 <OS_CPU_SR_Save>
        OSTCBPrioTbl[prio] = ptcb;
    80000cbc:	c7018793          	addi	a5,gp,-912 # 90000a10 <OSTCBPrioTbl>
    80000cc0:	048e                	slli	s1,s1,0x3
    80000cc2:	94be                	add	s1,s1,a5
        ptcb->OSTCBNext    = OSTCBList;                    /* Link into TCB chain                      */
    80000cc4:	10000797          	auipc	a5,0x10000
    80000cc8:	93c78793          	addi	a5,a5,-1732 # 90000600 <OSTCBList>
    80000ccc:	6398                	ld	a4,0(a5)
        OSTCBPrioTbl[prio] = ptcb;
    80000cce:	e080                	sd	s0,0(s1)
        ptcb->OSTCBPrev    = (OS_TCB *)0;
    80000cd0:	02043423          	sd	zero,40(s0)
        ptcb->OSTCBNext    = OSTCBList;                    /* Link into TCB chain                      */
    80000cd4:	f018                	sd	a4,32(s0)
        if (OSTCBList != (OS_TCB *)0) {
    80000cd6:	c311                	beqz	a4,80000cda <OS_TCBInit.constprop.0+0xc4>
            OSTCBList->OSTCBPrev = ptcb;
    80000cd8:	f700                	sd	s0,40(a4)
        }
        OSTCBList               = ptcb;
        OSRdyGrp               |= ptcb->OSTCBBitY;         /* Make task ready to run                   */
    80000cda:	10000717          	auipc	a4,0x10000
    80000cde:	8f670713          	addi	a4,a4,-1802 # 900005d0 <OSRdyGrp>
    80000ce2:	00074683          	lbu	a3,0(a4)
        OSTCBList               = ptcb;
    80000ce6:	e380                	sd	s0,0(a5)
        OSRdyGrp               |= ptcb->OSTCBBitY;         /* Make task ready to run                   */
    80000ce8:	05e44783          	lbu	a5,94(s0)
    80000cec:	8fd5                	or	a5,a5,a3
    80000cee:	00f70023          	sb	a5,0(a4)
        OSRdyTbl[ptcb->OSTCBY] |= ptcb->OSTCBBitX;
    80000cf2:	05c44703          	lbu	a4,92(s0)
    80000cf6:	10000797          	auipc	a5,0x10000
    80000cfa:	8e278793          	addi	a5,a5,-1822 # 900005d8 <OSRdyTbl>
    80000cfe:	05d44683          	lbu	a3,93(s0)
    80000d02:	97ba                	add	a5,a5,a4
    80000d04:	0007c703          	lbu	a4,0(a5)
    80000d08:	8f55                	or	a4,a4,a3
    80000d0a:	00e78023          	sb	a4,0(a5)
        OSTaskCtr++;                                       /* Increment the #tasks counter             */
    80000d0e:	10000717          	auipc	a4,0x10000
    80000d12:	8fa70713          	addi	a4,a4,-1798 # 90000608 <OSTaskCtr>
    80000d16:	00074783          	lbu	a5,0(a4)
    80000d1a:	2785                	addiw	a5,a5,1
    80000d1c:	00f70023          	sb	a5,0(a4)
        OS_EXIT_CRITICAL();
    80000d20:	aebff0ef          	jal	ra,8000080a <OS_CPU_SR_Restore>
        return (OS_ERR_NONE);
    80000d24:	4501                	li	a0,0
    }
    OS_EXIT_CRITICAL();
    return (OS_ERR_TASK_NO_MORE_TCB);
}
    80000d26:	4f20206f          	j	80003218 <__riscv_restore_6>
    OS_EXIT_CRITICAL();
    80000d2a:	ae1ff0ef          	jal	ra,8000080a <OS_CPU_SR_Restore>
    return (OS_ERR_TASK_NO_MORE_TCB);
    80000d2e:	04200513          	li	a0,66
    80000d32:	bfd5                	j	80000d26 <OS_TCBInit.constprop.0+0x110>

0000000080000d34 <OS_TaskIdle>:
{
    80000d34:	4cc022ef          	jal	t0,80003200 <__riscv_save_0>
        OSIdleCtr++;
    80000d38:	10000417          	auipc	s0,0x10000
    80000d3c:	88840413          	addi	s0,s0,-1912 # 900005c0 <OSIdleCtr>
        OS_ENTER_CRITICAL();
    80000d40:	ac1ff0ef          	jal	ra,80000800 <OS_CPU_SR_Save>
        OSIdleCtr++;
    80000d44:	401c                	lw	a5,0(s0)
    80000d46:	2785                	addiw	a5,a5,1
    80000d48:	c01c                	sw	a5,0(s0)
        OS_EXIT_CRITICAL();
    80000d4a:	ac1ff0ef          	jal	ra,8000080a <OS_CPU_SR_Restore>
*********************************************************************************************************
*/
#if OS_CPU_HOOKS_EN > 0 && OS_VERSION > 203
void  OSInitHookEnd (void)
{
}
    80000d4e:	bfcd                	j	80000d40 <OS_TaskIdle+0xc>

0000000080000d50 <OSTaskNameSet>:
*/
#if OS_TASK_NAME_EN > 0u
void  OSTaskNameSet (INT8U   prio,
                     INT8U  *pname,
                     INT8U  *perr)
{
    80000d50:	49c022ef          	jal	t0,800031ec <__riscv_save_2>
    if (pname == (INT8U *)0) {                       /* Is 'pname' a NULL pointer?                     */
        *perr = OS_ERR_PNAME_NULL;                   /* Yes                                            */
        return;
    }
#endif
    if (OSIntNesting > 0u) {                         /* See if trying to call from an ISR              */
    80000d54:	10000797          	auipc	a5,0x10000
    80000d58:	8787c783          	lbu	a5,-1928(a5) # 900005cc <OSIntNesting>
{
    80000d5c:	8432                	mv	s0,a2
    if (OSIntNesting > 0u) {                         /* See if trying to call from an ISR              */
    80000d5e:	c791                	beqz	a5,80000d6a <OSTaskNameSet+0x1a>
        *perr = OS_ERR_NAME_SET_ISR;
    80000d60:	47c9                	li	a5,18
        *perr = OS_ERR_TASK_NOT_EXIST;
        return;
    }
    if (ptcb == OS_TCB_RESERVED) {                   /* Task assigned to a Mutex?                      */
        OS_EXIT_CRITICAL();                          /* Yes                                            */
        *perr = OS_ERR_TASK_NOT_EXIST;
    80000d62:	00f40023          	sb	a5,0(s0)
        return;
    }
    ptcb->OSTCBTaskName = pname;
    OS_EXIT_CRITICAL();
    *perr               = OS_ERR_NONE;
}
    80000d66:	4be0206f          	j	80003224 <__riscv_restore_2>
    80000d6a:	84aa                	mv	s1,a0
    80000d6c:	892e                	mv	s2,a1
    OS_ENTER_CRITICAL();
    80000d6e:	a93ff0ef          	jal	ra,80000800 <OS_CPU_SR_Save>
    ptcb = OSTCBPrioTbl[prio];
    80000d72:	c7018793          	addi	a5,gp,-912 # 90000a10 <OSTCBPrioTbl>
    80000d76:	048e                	slli	s1,s1,0x3
    80000d78:	94be                	add	s1,s1,a5
    80000d7a:	609c                	ld	a5,0(s1)
    if (ptcb == (OS_TCB *)0) {                       /* Does task exist?                               */
    80000d7c:	e791                	bnez	a5,80000d88 <OSTaskNameSet+0x38>
        OS_EXIT_CRITICAL();                          /* Yes                                            */
    80000d7e:	a8dff0ef          	jal	ra,8000080a <OS_CPU_SR_Restore>
        *perr = OS_ERR_TASK_NOT_EXIST;
    80000d82:	04300793          	li	a5,67
    80000d86:	bff1                	j	80000d62 <OSTaskNameSet+0x12>
    if (ptcb == OS_TCB_RESERVED) {                   /* Task assigned to a Mutex?                      */
    80000d88:	4705                	li	a4,1
    80000d8a:	fee78ae3          	beq	a5,a4,80000d7e <OSTaskNameSet+0x2e>
    ptcb->OSTCBTaskName = pname;
    80000d8e:	0927b023          	sd	s2,128(a5)
    OS_EXIT_CRITICAL();
    80000d92:	a79ff0ef          	jal	ra,8000080a <OS_CPU_SR_Restore>
    *perr               = OS_ERR_NONE;
    80000d96:	00040023          	sb	zero,0(s0)
    80000d9a:	b7f1                	j	80000d66 <OSTaskNameSet+0x16>

0000000080000d9c <OSSemCreate>:
*              == (void *)0  if no event control blocks were available
*********************************************************************************************************
*/

OS_EVENT  *OSSemCreate (INT16U cnt)
{
    80000d9c:	450022ef          	jal	t0,800031ec <__riscv_save_2>
    if (OSSafetyCriticalStartFlag == OS_TRUE) {
        OS_SAFETY_CRITICAL_EXCEPTION();
    }
#endif

    if (OSIntNesting > 0u) {                               /* See if called from ISR ...               */
    80000da0:	10000797          	auipc	a5,0x10000
    80000da4:	82c7c783          	lbu	a5,-2004(a5) # 900005cc <OSIntNesting>
    80000da8:	e7b1                	bnez	a5,80000df4 <OSSemCreate+0x58>
    80000daa:	84aa                	mv	s1,a0
        return ((OS_EVENT *)0);                            /* ... can't CREATE from an ISR             */
    }
    OS_ENTER_CRITICAL();
    80000dac:	a55ff0ef          	jal	ra,80000800 <OS_CPU_SR_Save>
    pevent = OSEventFreeList;                              /* Get next free event control block        */
    80000db0:	10000797          	auipc	a5,0x10000
    80000db4:	80878793          	addi	a5,a5,-2040 # 900005b8 <OSEventFreeList>
    80000db8:	6380                	ld	s0,0(a5)
    if (OSEventFreeList != (OS_EVENT *)0) {                /* See if pool of free ECB pool was empty   */
    80000dba:	c019                	beqz	s0,80000dc0 <OSSemCreate+0x24>
        OSEventFreeList = (OS_EVENT *)OSEventFreeList->OSEventPtr;
    80000dbc:	6418                	ld	a4,8(s0)
    80000dbe:	e398                	sd	a4,0(a5)
    }
    OS_EXIT_CRITICAL();
    80000dc0:	a4bff0ef          	jal	ra,8000080a <OS_CPU_SR_Restore>
    if (pevent != (OS_EVENT *)0) {                         /* Get an event control block               */
    80000dc4:	c805                	beqz	s0,80000df4 <OSSemCreate+0x58>
        pevent->OSEventType    = OS_EVENT_TYPE_SEM;
    80000dc6:	478d                	li	a5,3
    80000dc8:	00f40023          	sb	a5,0(s0)
        pevent->OSEventCnt     = cnt;                      /* Set semaphore value                      */
        pevent->OSEventPtr     = (void *)0;                /* Unlink from ECB free list                */
#if OS_EVENT_NAME_EN > 0u
        pevent->OSEventName    = (INT8U *)(void *)"?";
    80000dcc:	0ffff797          	auipc	a5,0xffff
    80000dd0:	23478793          	addi	a5,a5,564 # 90000000 <_data>
        pevent->OSEventCnt     = cnt;                      /* Set semaphore value                      */
    80000dd4:	00941823          	sh	s1,16(s0)
        pevent->OSEventPtr     = (void *)0;                /* Unlink from ECB free list                */
    80000dd8:	00043423          	sd	zero,8(s0)
        pevent->OSEventName    = (INT8U *)(void *)"?";
    80000ddc:	f01c                	sd	a5,32(s0)
    pevent->OSEventGrp = 0u;                     /* No task waiting on event                           */
    80000dde:	00041923          	sh	zero,18(s0)
        pevent->OSEventTbl[i] = 0u;
    80000de2:	00042a23          	sw	zero,20(s0)
    80000de6:	00041c23          	sh	zero,24(s0)
    80000dea:	00040d23          	sb	zero,26(s0)
#endif
        OS_EventWaitListInit(pevent);                      /* Initialize to 'nobody waiting' on sem.   */
    }
    return (pevent);
}
    80000dee:	8522                	mv	a0,s0
    80000df0:	4340206f          	j	80003224 <__riscv_restore_2>
        return ((OS_EVENT *)0);                            /* ... can't CREATE from an ISR             */
    80000df4:	4401                	li	s0,0
    80000df6:	bfe5                	j	80000dee <OSSemCreate+0x52>

0000000080000df8 <OSEventNameSet>:
{
    80000df8:	3f4022ef          	jal	t0,800031ec <__riscv_save_2>
    if (OSIntNesting > 0u) {                     /* See if trying to call from an ISR                  */
    80000dfc:	0ffff797          	auipc	a5,0xffff
    80000e00:	7d07c783          	lbu	a5,2000(a5) # 900005cc <OSIntNesting>
{
    80000e04:	8432                	mv	s0,a2
    if (OSIntNesting > 0u) {                     /* See if trying to call from an ISR                  */
    80000e06:	c791                	beqz	a5,80000e12 <OSEventNameSet+0x1a>
        *perr = OS_ERR_NAME_SET_ISR;
    80000e08:	47c9                	li	a5,18
             *perr = OS_ERR_EVENT_TYPE;
    80000e0a:	00f40023          	sb	a5,0(s0)
}
    80000e0e:	4160206f          	j	80003224 <__riscv_restore_2>
    switch (pevent->OSEventType) {
    80000e12:	00054783          	lbu	a5,0(a0)
    80000e16:	470d                	li	a4,3
    80000e18:	84aa                	mv	s1,a0
    80000e1a:	37fd                	addiw	a5,a5,-1
    80000e1c:	00f77463          	bgeu	a4,a5,80000e24 <OSEventNameSet+0x2c>
             *perr = OS_ERR_EVENT_TYPE;
    80000e20:	4785                	li	a5,1
    80000e22:	b7e5                	j	80000e0a <OSEventNameSet+0x12>
    80000e24:	892e                	mv	s2,a1
    OS_ENTER_CRITICAL();
    80000e26:	9dbff0ef          	jal	ra,80000800 <OS_CPU_SR_Save>
    pevent->OSEventName = pname;
    80000e2a:	0324b023          	sd	s2,32(s1)
    OS_EXIT_CRITICAL();
    80000e2e:	9ddff0ef          	jal	ra,8000080a <OS_CPU_SR_Restore>
    *perr = OS_ERR_NONE;
    80000e32:	00040023          	sb	zero,0(s0)
    80000e36:	bfe1                	j	80000e0e <OSEventNameSet+0x16>

0000000080000e38 <halt>:
	sp[31]=mepc;
	time_handler(sp);
}

void halt(int32_t mcause,int32_t mepc)
{
    80000e38:	3c8022ef          	jal	t0,80003200 <__riscv_save_0>
    80000e3c:	862e                	mv	a2,a1
	extern void exit(int);
	disable_global_int();
    80000e3e:	30047073          	csrci	mstatus,8
	printf("halt ,mcause=%llx ,mepc=%llx\n",mcause,mepc);
    80000e42:	85aa                	mv	a1,a0
    80000e44:	0ffff517          	auipc	a0,0xffff
    80000e48:	1c450513          	addi	a0,a0,452 # 90000008 <_data+0x8>
    80000e4c:	1ba010ef          	jal	ra,80002006 <iprintf>
	exit(0);
    80000e50:	4501                	li	a0,0
    80000e52:	57d000ef          	jal	ra,80001bce <exit>

0000000080000e56 <OS_Sched>:
{
    80000e56:	3aa022ef          	jal	t0,80003200 <__riscv_save_0>
    OS_ENTER_CRITICAL();
    80000e5a:	9a7ff0ef          	jal	ra,80000800 <OS_CPU_SR_Save>
        if (OSLockNesting == 0u) {                     /* ... scheduler is not locked                  */
    80000e5e:	0ffff797          	auipc	a5,0xffff
    80000e62:	76e7c783          	lbu	a5,1902(a5) # 900005cc <OSIntNesting>
    80000e66:	0ffff717          	auipc	a4,0xffff
    80000e6a:	76774703          	lbu	a4,1895(a4) # 900005cd <OSLockNesting>
    80000e6e:	8fd9                	or	a5,a5,a4
    OS_ENTER_CRITICAL();
    80000e70:	842a                	mv	s0,a0
        if (OSLockNesting == 0u) {                     /* ... scheduler is not locked                  */
    80000e72:	e3b9                	bnez	a5,80000eb8 <OS_Sched+0x62>
            OS_SchedNew();
    80000e74:	d53ff0ef          	jal	ra,80000bc6 <OS_SchedNew>
            OSTCBHighRdy = OSTCBPrioTbl[OSPrioHighRdy];
    80000e78:	0ffff717          	auipc	a4,0xffff
    80000e7c:	75774703          	lbu	a4,1879(a4) # 900005cf <OSPrioHighRdy>
    80000e80:	00371693          	slli	a3,a4,0x3
    80000e84:	c7018793          	addi	a5,gp,-912 # 90000a10 <OSTCBPrioTbl>
    80000e88:	97b6                	add	a5,a5,a3
    80000e8a:	639c                	ld	a5,0(a5)
    80000e8c:	0ffff697          	auipc	a3,0xffff
    80000e90:	76f6b623          	sd	a5,1900(a3) # 900005f8 <OSTCBHighRdy>
            if (OSPrioHighRdy != OSPrioCur) {          /* No Ctx Sw if current task is highest rdy     */
    80000e94:	0ffff697          	auipc	a3,0xffff
    80000e98:	73a6c683          	lbu	a3,1850(a3) # 900005ce <OSPrioCur>
    80000e9c:	00e68e63          	beq	a3,a4,80000eb8 <OS_Sched+0x62>
                OSTCBHighRdy->OSTCBCtxSwCtr++;         /* Inc. # of context switches to this task      */
    80000ea0:	53b8                	lw	a4,96(a5)
    80000ea2:	2705                	addiw	a4,a4,1
    80000ea4:	d3b8                	sw	a4,96(a5)
                OSCtxSwCtr++;                          /* Increment context switch counter             */
    80000ea6:	0ffff717          	auipc	a4,0xffff
    80000eaa:	70a70713          	addi	a4,a4,1802 # 900005b0 <__bss_start>
    80000eae:	431c                	lw	a5,0(a4)
    80000eb0:	2785                	addiw	a5,a5,1
    80000eb2:	c31c                	sw	a5,0(a4)
                OS_TASK_SW();                          /* Perform a context switch                     */
    80000eb4:	bddff0ef          	jal	ra,80000a90 <OSCtxSw>
    OS_EXIT_CRITICAL();
    80000eb8:	8522                	mv	a0,s0
    80000eba:	951ff0ef          	jal	ra,8000080a <OS_CPU_SR_Restore>
}
    80000ebe:	36c0206f          	j	8000322a <__riscv_restore_0>

0000000080000ec2 <OSTaskCreateExt.constprop.0>:
INT8U  OSTaskCreateExt (void   (*task)(void *p_arg),
    80000ec2:	312022ef          	jal	t0,800031d4 <__riscv_save_6>
    80000ec6:	8aaa                	mv	s5,a0
    80000ec8:	842e                	mv	s0,a1
    80000eca:	8a32                	mv	s4,a2
    80000ecc:	8936                	mv	s2,a3
    80000ece:	84ba                	mv	s1,a4
    OS_ENTER_CRITICAL();
    80000ed0:	931ff0ef          	jal	ra,80000800 <OS_CPU_SR_Save>
    if (OSIntNesting > 0u) {                 /* Make sure we don't create the task from within an ISR  */
    80000ed4:	0ffff797          	auipc	a5,0xffff
    80000ed8:	6f87c783          	lbu	a5,1784(a5) # 900005cc <OSIntNesting>
    80000edc:	cb81                	beqz	a5,80000eec <OSTaskCreateExt.constprop.0+0x2a>
        OS_EXIT_CRITICAL();
    80000ede:	92dff0ef          	jal	ra,8000080a <OS_CPU_SR_Restore>
        return (OS_ERR_TASK_CREATE_ISR);
    80000ee2:	03c00413          	li	s0,60
}
    80000ee6:	8522                	mv	a0,s0
    80000ee8:	3300206f          	j	80003218 <__riscv_restore_6>
    if (OSTCBPrioTbl[prio] == (OS_TCB *)0) { /* Make sure task doesn't already exist at this priority  */
    80000eec:	c7018793          	addi	a5,gp,-912 # 90000a10 <OSTCBPrioTbl>
    80000ef0:	003a1b13          	slli	s6,s4,0x3
    80000ef4:	01678733          	add	a4,a5,s6
    80000ef8:	6314                	ld	a3,0(a4)
    80000efa:	89be                	mv	s3,a5
    80000efc:	e2f5                	bnez	a3,80000fe0 <OSTaskCreateExt.constprop.0+0x11e>
        OSTCBPrioTbl[prio] = OS_TCB_RESERVED;/* Reserve the priority to prevent others from doing ...  */
    80000efe:	4785                	li	a5,1
    80000f00:	e31c                	sd	a5,0(a4)
        OS_EXIT_CRITICAL();
    80000f02:	909ff0ef          	jal	ra,8000080a <OS_CPU_SR_Restore>
    80000f06:	40048713          	addi	a4,s1,1024
    80000f0a:	87a6                	mv	a5,s1
    if ((opt & OS_TASK_OPT_STK_CHK) != 0x0000u) {      /* See if stack checking has been enabled       */
        if ((opt & OS_TASK_OPT_STK_CLR) != 0x0000u) {  /* See if stack needs to be cleared             */
#if OS_STK_GROWTH == 1u
            while (size > 0u) {                        /* Stack grows from HIGH to LOW memory          */
                size--;
                *pbos++ = (OS_STK)0;                   /* Clear from bottom of stack and up!           */
    80000f0c:	07a1                	addi	a5,a5,8
    80000f0e:	fe07bc23          	sd	zero,-8(a5)
            while (size > 0u) {                        /* Stack grows from HIGH to LOW memory          */
    80000f12:	fef71de3          	bne	a4,a5,80000f0c <OSTaskCreateExt.constprop.0+0x4a>
	stk[0]=(OS_STK)halt; //ra,meaningless ,task shuldn't exit.
    80000f16:	00000797          	auipc	a5,0x0
    80000f1a:	f2278793          	addi	a5,a5,-222 # 80000e38 <halt>
    80000f1e:	f0f43023          	sd	a5,-256(s0)
	stk[1]=0x80;//mstatus.set 0x80 ,global interrupt will be set when task begin.
    80000f22:	08000793          	li	a5,128
    80000f26:	f0f43423          	sd	a5,-248(s0)
	stk[2]=0;//unused
    80000f2a:	f0043823          	sd	zero,-240(s0)
	stk[3]=0;//unused
    80000f2e:	f0043c23          	sd	zero,-232(s0)
	stk[4]=0;
    80000f32:	f2043023          	sd	zero,-224(s0)
	stk[5]=0;
    80000f36:	f2043423          	sd	zero,-216(s0)
	stk[6]=0;
    80000f3a:	f2043823          	sd	zero,-208(s0)
	stk[7]=0;
    80000f3e:	f2043c23          	sd	zero,-200(s0)
	stk[8]=0;
    80000f42:	f4043023          	sd	zero,-192(s0)
	stk[9]=(OS_STK)pdata;
    80000f46:	f4043423          	sd	zero,-184(s0)
	stk[10]=0;
    80000f4a:	f4043823          	sd	zero,-176(s0)
	stk[11]=0;
    80000f4e:	f4043c23          	sd	zero,-168(s0)
	stk[12]=0;
    80000f52:	f6043023          	sd	zero,-160(s0)
	stk[13]=0;
    80000f56:	f6043423          	sd	zero,-152(s0)
	stk[14]=0;
    80000f5a:	f6043823          	sd	zero,-144(s0)
	stk[15]=0;
    80000f5e:	f6043c23          	sd	zero,-136(s0)
	stk[16]=0;
    80000f62:	f8043023          	sd	zero,-128(s0)
	stk[17]=0;
    80000f66:	f8043423          	sd	zero,-120(s0)
	stk[18]=0;
    80000f6a:	f8043823          	sd	zero,-112(s0)
	stk[19]=0;
    80000f6e:	f8043c23          	sd	zero,-104(s0)
	stk[20]=0;
    80000f72:	fa043023          	sd	zero,-96(s0)
	stk[21]=0;
    80000f76:	fa043423          	sd	zero,-88(s0)
	stk[22]=0;
    80000f7a:	fa043823          	sd	zero,-80(s0)
	stk[23]=0;
    80000f7e:	fa043c23          	sd	zero,-72(s0)
	stk[24]=0;
    80000f82:	fc043023          	sd	zero,-64(s0)
	stk[25]=0;
    80000f86:	fc043423          	sd	zero,-56(s0)
	stk[26]=0;
    80000f8a:	fc043823          	sd	zero,-48(s0)
	stk[27]=0;
    80000f8e:	fc043c23          	sd	zero,-40(s0)
	stk[28]=0;
    80000f92:	fe043023          	sd	zero,-32(s0)
	stk[29]=0;
    80000f96:	fe043423          	sd	zero,-24(s0)
	stk[30]=0;
    80000f9a:	fe043823          	sd	zero,-16(s0)
	stk[31]=(OS_STK)task;//mepc                      
    80000f9e:	ff543c23          	sd	s5,-8(s0)
        err = OS_TCBInit(prio, psp, pbos, id, stk_size, pext, opt);
    80000fa2:	f0040593          	addi	a1,s0,-256
    80000fa6:	478d                	li	a5,3
    80000fa8:	08000713          	li	a4,128
    80000fac:	86ca                	mv	a3,s2
    80000fae:	8626                	mv	a2,s1
    80000fb0:	8552                	mv	a0,s4
    80000fb2:	c65ff0ef          	jal	ra,80000c16 <OS_TCBInit.constprop.0>
    80000fb6:	842a                	mv	s0,a0
        if (err == OS_ERR_NONE) {
    80000fb8:	e919                	bnez	a0,80000fce <OSTaskCreateExt.constprop.0+0x10c>
            if (OSRunning == OS_TRUE) {                        /* Find HPT if multitasking has started */
    80000fba:	0ffff717          	auipc	a4,0xffff
    80000fbe:	62674703          	lbu	a4,1574(a4) # 900005e0 <OSRunning>
    80000fc2:	4785                	li	a5,1
    80000fc4:	f2f711e3          	bne	a4,a5,80000ee6 <OSTaskCreateExt.constprop.0+0x24>
                OS_Sched();
    80000fc8:	e8fff0ef          	jal	ra,80000e56 <OS_Sched>
    80000fcc:	bf29                	j	80000ee6 <OSTaskCreateExt.constprop.0+0x24>
            OS_ENTER_CRITICAL();
    80000fce:	833ff0ef          	jal	ra,80000800 <OS_CPU_SR_Save>
            OSTCBPrioTbl[prio] = (OS_TCB *)0;                  /* Make this priority avail. to others  */
    80000fd2:	016987b3          	add	a5,s3,s6
    80000fd6:	0007b023          	sd	zero,0(a5)
            OS_EXIT_CRITICAL();
    80000fda:	831ff0ef          	jal	ra,8000080a <OS_CPU_SR_Restore>
    80000fde:	b721                	j	80000ee6 <OSTaskCreateExt.constprop.0+0x24>
    OS_EXIT_CRITICAL();
    80000fe0:	82bff0ef          	jal	ra,8000080a <OS_CPU_SR_Restore>
    return (OS_ERR_PRIO_EXIST);
    80000fe4:	02800413          	li	s0,40
    80000fe8:	bdfd                	j	80000ee6 <OSTaskCreateExt.constprop.0+0x24>

0000000080000fea <OSTaskCreate.constprop.0>:
INT8U  OSTaskCreate (void   (*task)(void *p_arg),
    80000fea:	1f6022ef          	jal	t0,800031e0 <__riscv_save_4>
    80000fee:	89aa                	mv	s3,a0
    80000ff0:	842e                	mv	s0,a1
    80000ff2:	8932                	mv	s2,a2
    OS_ENTER_CRITICAL();
    80000ff4:	80dff0ef          	jal	ra,80000800 <OS_CPU_SR_Save>
    if (OSIntNesting > 0u) {                 /* Make sure we don't create the task from within an ISR  */
    80000ff8:	0ffff797          	auipc	a5,0xffff
    80000ffc:	5d47c783          	lbu	a5,1492(a5) # 900005cc <OSIntNesting>
    80001000:	cb81                	beqz	a5,80001010 <OSTaskCreate.constprop.0+0x26>
        OS_EXIT_CRITICAL();
    80001002:	809ff0ef          	jal	ra,8000080a <OS_CPU_SR_Restore>
        return (OS_ERR_TASK_CREATE_ISR);
    80001006:	03c00413          	li	s0,60
}
    8000100a:	8522                	mv	a0,s0
    8000100c:	2120206f          	j	8000321e <__riscv_restore_4>
    if (OSTCBPrioTbl[prio] == (OS_TCB *)0) { /* Make sure task doesn't already exist at this priority  */
    80001010:	00391793          	slli	a5,s2,0x3
    80001014:	c7018493          	addi	s1,gp,-912 # 90000a10 <OSTCBPrioTbl>
    80001018:	94be                	add	s1,s1,a5
    8000101a:	609c                	ld	a5,0(s1)
    8000101c:	e7f9                	bnez	a5,800010ea <OSTaskCreate.constprop.0+0x100>
        OSTCBPrioTbl[prio] = OS_TCB_RESERVED;/* Reserve the priority to prevent others from doing ...  */
    8000101e:	4a05                	li	s4,1
    80001020:	0144b023          	sd	s4,0(s1)
        OS_EXIT_CRITICAL();
    80001024:	fe6ff0ef          	jal	ra,8000080a <OS_CPU_SR_Restore>
	stk[0]=(OS_STK)halt; //ra,meaningless ,task shuldn't exit.
    80001028:	00000797          	auipc	a5,0x0
    8000102c:	e1078793          	addi	a5,a5,-496 # 80000e38 <halt>
    80001030:	f0f43023          	sd	a5,-256(s0)
	stk[1]=0x80;//mstatus.set 0x80 ,global interrupt will be set when task begin.
    80001034:	08000793          	li	a5,128
    80001038:	f0f43423          	sd	a5,-248(s0)
	stk[2]=0;//unused
    8000103c:	f0043823          	sd	zero,-240(s0)
	stk[3]=0;//unused
    80001040:	f0043c23          	sd	zero,-232(s0)
	stk[4]=0;
    80001044:	f2043023          	sd	zero,-224(s0)
	stk[5]=0;
    80001048:	f2043423          	sd	zero,-216(s0)
	stk[6]=0;
    8000104c:	f2043823          	sd	zero,-208(s0)
	stk[7]=0;
    80001050:	f2043c23          	sd	zero,-200(s0)
	stk[8]=0;
    80001054:	f4043023          	sd	zero,-192(s0)
	stk[9]=(OS_STK)pdata;
    80001058:	f4043423          	sd	zero,-184(s0)
	stk[10]=0;
    8000105c:	f4043823          	sd	zero,-176(s0)
	stk[11]=0;
    80001060:	f4043c23          	sd	zero,-168(s0)
	stk[12]=0;
    80001064:	f6043023          	sd	zero,-160(s0)
	stk[13]=0;
    80001068:	f6043423          	sd	zero,-152(s0)
	stk[14]=0;
    8000106c:	f6043823          	sd	zero,-144(s0)
	stk[15]=0;
    80001070:	f6043c23          	sd	zero,-136(s0)
	stk[16]=0;
    80001074:	f8043023          	sd	zero,-128(s0)
	stk[17]=0;
    80001078:	f8043423          	sd	zero,-120(s0)
	stk[18]=0;
    8000107c:	f8043823          	sd	zero,-112(s0)
	stk[19]=0;
    80001080:	f8043c23          	sd	zero,-104(s0)
	stk[20]=0;
    80001084:	fa043023          	sd	zero,-96(s0)
	stk[21]=0;
    80001088:	fa043423          	sd	zero,-88(s0)
	stk[22]=0;
    8000108c:	fa043823          	sd	zero,-80(s0)
	stk[23]=0;
    80001090:	fa043c23          	sd	zero,-72(s0)
	stk[24]=0;
    80001094:	fc043023          	sd	zero,-64(s0)
	stk[25]=0;
    80001098:	fc043423          	sd	zero,-56(s0)
	stk[26]=0;
    8000109c:	fc043823          	sd	zero,-48(s0)
	stk[27]=0;
    800010a0:	fc043c23          	sd	zero,-40(s0)
	stk[28]=0;
    800010a4:	fe043023          	sd	zero,-32(s0)
	stk[29]=0;
    800010a8:	fe043423          	sd	zero,-24(s0)
	stk[30]=0;
    800010ac:	fe043823          	sd	zero,-16(s0)
	stk[31]=(OS_STK)task;//mepc                      
    800010b0:	ff343c23          	sd	s3,-8(s0)
        err = OS_TCBInit(prio, psp, (OS_STK *)0, 0u, 0u, (void *)0, 0u);
    800010b4:	f0040593          	addi	a1,s0,-256
    800010b8:	4781                	li	a5,0
    800010ba:	4701                	li	a4,0
    800010bc:	4681                	li	a3,0
    800010be:	4601                	li	a2,0
    800010c0:	854a                	mv	a0,s2
    800010c2:	b55ff0ef          	jal	ra,80000c16 <OS_TCBInit.constprop.0>
    800010c6:	842a                	mv	s0,a0
        if (err == OS_ERR_NONE) {
    800010c8:	e911                	bnez	a0,800010dc <OSTaskCreate.constprop.0+0xf2>
            if (OSRunning == OS_TRUE) {      /* Find highest priority task if multitasking has started */
    800010ca:	0ffff797          	auipc	a5,0xffff
    800010ce:	5167c783          	lbu	a5,1302(a5) # 900005e0 <OSRunning>
    800010d2:	f3479ce3          	bne	a5,s4,8000100a <OSTaskCreate.constprop.0+0x20>
                OS_Sched();
    800010d6:	d81ff0ef          	jal	ra,80000e56 <OS_Sched>
    800010da:	bf05                	j	8000100a <OSTaskCreate.constprop.0+0x20>
            OS_ENTER_CRITICAL();
    800010dc:	f24ff0ef          	jal	ra,80000800 <OS_CPU_SR_Save>
            OSTCBPrioTbl[prio] = (OS_TCB *)0;/* Make this priority available to others                 */
    800010e0:	0004b023          	sd	zero,0(s1)
            OS_EXIT_CRITICAL();
    800010e4:	f26ff0ef          	jal	ra,8000080a <OS_CPU_SR_Restore>
    800010e8:	b70d                	j	8000100a <OSTaskCreate.constprop.0+0x20>
    OS_EXIT_CRITICAL();
    800010ea:	f20ff0ef          	jal	ra,8000080a <OS_CPU_SR_Restore>
    return (OS_ERR_PRIO_EXIST);
    800010ee:	02800413          	li	s0,40
    800010f2:	bf21                	j	8000100a <OSTaskCreate.constprop.0+0x20>

00000000800010f4 <OSTmr_Task>:
************************************************************************************************************************
*/

#if OS_TMR_EN > 0u
static  void  OSTmr_Task (void *p_arg)
{
    800010f4:	0c4022ef          	jal	t0,800031b8 <__riscv_save_12>
        OSSemPend(OSTmrSemSignal, 0u, &err);                     /* Wait for signal indicating time to update timers  */
        OSSchedLock();
        OSTmrTime++;                                             /* Increment the current time                        */
        spoke  = (INT16U)(OSTmrTime % OS_TMR_CFG_WHEEL_SIZE);    /* Position on current timer wheel entry             */
        pspoke = &OSTmrWheelTbl[spoke];
        ptmr   = pspoke->OSTmrFirst;
    800010f8:	10001997          	auipc	s3,0x10001
    800010fc:	7f898993          	addi	s3,s3,2040 # 900028f0 <OSTmrWheelTbl>
{
    80001100:	1141                	addi	sp,sp,-16
#endif
    if (pevent->OSEventType != OS_EVENT_TYPE_SEM) {   /* Validate event block type                     */
        *perr = OS_ERR_EVENT_TYPE;
        return;
    }
    if (OSIntNesting > 0u) {                          /* See if called from ISR ...                    */
    80001102:	0ffff917          	auipc	s2,0xffff
    80001106:	4ca90913          	addi	s2,s2,1226 # 900005cc <OSIntNesting>
        *perr = OS_ERR_PEND_ISR;                      /* ... can't PEND from an ISR                    */
        return;
    }
    if (OSLockNesting > 0u) {                         /* See if called with scheduler locked ...       */
    8000110a:	0ffff417          	auipc	s0,0xffff
    8000110e:	4c340413          	addi	s0,s0,1219 # 900005cd <OSLockNesting>
        OS_EXIT_CRITICAL();
        *perr = OS_ERR_NONE;
        return;
    }
                                                      /* Otherwise, must wait until event occurs       */
    OSTCBCur->OSTCBStat     |= OS_STAT_SEM;           /* Resource not available, pend on semaphore     */
    80001112:	0ffffa17          	auipc	s4,0xffff
    80001116:	4d6a0a13          	addi	s4,s4,1238 # 900005e8 <OSTCBCur>
    8000111a:	84ce                	mv	s1,s3
        OSSemPend(OSTmrSemSignal, 0u, &err);                     /* Wait for signal indicating time to update timers  */
    8000111c:	0ffffb97          	auipc	s7,0xffff
    80001120:	504b8b93          	addi	s7,s7,1284 # 90000620 <OSTmrSemSignal>
    OSRdyTbl[y]  &= (OS_PRIO)~OSTCBCur->OSTCBBitX;
    80001124:	0ffffc17          	auipc	s8,0xffff
    80001128:	4b4c0c13          	addi	s8,s8,1204 # 900005d8 <OSRdyTbl>
        OSRdyGrp &= (OS_PRIO)~OSTCBCur->OSTCBBitY;
    8000112c:	0ffffb17          	auipc	s6,0xffff
    80001130:	4a4b0b13          	addi	s6,s6,1188 # 900005d0 <OSRdyGrp>
    80001134:	000bba83          	ld	s5,0(s7)
    if (pevent->OSEventType != OS_EVENT_TYPE_SEM) {   /* Validate event block type                     */
    80001138:	478d                	li	a5,3
    8000113a:	000ac703          	lbu	a4,0(s5)
    8000113e:	02f71363          	bne	a4,a5,80001164 <OSTmr_Task+0x70>
    if (OSLockNesting > 0u) {                         /* See if called with scheduler locked ...       */
    80001142:	00094783          	lbu	a5,0(s2)
    80001146:	00044703          	lbu	a4,0(s0)
    8000114a:	8fd9                	or	a5,a5,a4
    8000114c:	ef81                	bnez	a5,80001164 <OSTmr_Task+0x70>
    OS_ENTER_CRITICAL();
    8000114e:	eb2ff0ef          	jal	ra,80000800 <OS_CPU_SR_Save>
    if (pevent->OSEventCnt > 0u) {                    /* If sem. is positive, resource available ...   */
    80001152:	010ad783          	lhu	a5,16(s5)
    OS_ENTER_CRITICAL();
    80001156:	85aa                	mv	a1,a0
    if (pevent->OSEventCnt > 0u) {                    /* If sem. is positive, resource available ...   */
    80001158:	cfc1                	beqz	a5,800011f0 <OSTmr_Task+0xfc>
        pevent->OSEventCnt--;                         /* ... decrement semaphore only if positive.     */
    8000115a:	37fd                	addiw	a5,a5,-1
    8000115c:	00fa9823          	sh	a5,16(s5)
    OSTCBCur->OSTCBStatPend      =  OS_STAT_PEND_OK;  /* Clear pend  status                            */
    OSTCBCur->OSTCBEventPtr      = (OS_EVENT  *)0;    /* Clear event pointers                          */
#if (OS_EVENT_MULTI_EN > 0u)
    OSTCBCur->OSTCBEventMultiPtr = (OS_EVENT **)0;
#endif
    OS_EXIT_CRITICAL();
    80001160:	eaaff0ef          	jal	ra,8000080a <OS_CPU_SR_Restore>
    if (OSRunning == OS_TRUE) {                  /* Make sure multitasking is running                  */
    80001164:	0ffffa97          	auipc	s5,0xffff
    80001168:	47ca8a93          	addi	s5,s5,1148 # 900005e0 <OSRunning>
    8000116c:	000ac703          	lbu	a4,0(s5)
    80001170:	4785                	li	a5,1
    80001172:	02f71263          	bne	a4,a5,80001196 <OSTmr_Task+0xa2>
        OS_ENTER_CRITICAL();
    80001176:	e8aff0ef          	jal	ra,80000800 <OS_CPU_SR_Save>
        if (OSIntNesting == 0u) {                /* Can't call from an ISR                             */
    8000117a:	00094783          	lbu	a5,0(s2)
    8000117e:	eb91                	bnez	a5,80001192 <OSTmr_Task+0x9e>
            if (OSLockNesting < 255u) {          /* Prevent OSLockNesting from wrapping back to 0      */
    80001180:	00044783          	lbu	a5,0(s0)
    80001184:	0ff00713          	li	a4,255
    80001188:	00e78563          	beq	a5,a4,80001192 <OSTmr_Task+0x9e>
                OSLockNesting++;                 /* Increment lock nesting level                       */
    8000118c:	2785                	addiw	a5,a5,1
    8000118e:	00f40023          	sb	a5,0(s0)
        OS_EXIT_CRITICAL();
    80001192:	e78ff0ef          	jal	ra,8000080a <OS_CPU_SR_Restore>
        OSTmrTime++;                                             /* Increment the current time                        */
    80001196:	0ffffd17          	auipc	s10,0xffff
    8000119a:	492d0d13          	addi	s10,s10,1170 # 90000628 <OSTmrTime>
    8000119e:	000d2783          	lw	a5,0(s10)
        while (ptmr != (OS_TMR *)0) {
            ptmr_next = (OS_TMR *)ptmr->OSTmrNext;               /* Point to next timer to update because current ... */
                                                                 /* ... timer could get unlinked from the wheel.      */
            if (OSTmrTime == ptmr->OSTmrMatch) {                 /* Process each timer that expires                   */
                OSTmr_Unlink(ptmr);                              /* Remove from current wheel spoke                   */
                if (ptmr->OSTmrOpt == OS_TMR_OPT_PERIODIC) {
    800011a2:	4d89                	li	s11,2
    ptmr->OSTmrState = OS_TMR_STATE_RUNNING;
    800011a4:	468d                	li	a3,3
        OSTmrTime++;                                             /* Increment the current time                        */
    800011a6:	2785                	addiw	a5,a5,1
    800011a8:	00fd2023          	sw	a5,0(s10)
        ptmr   = pspoke->OSTmrFirst;
    800011ac:	8b9d                	andi	a5,a5,7
    800011ae:	0792                	slli	a5,a5,0x4
    800011b0:	97ce                	add	a5,a5,s3
    800011b2:	6388                	ld	a0,0(a5)
        pspoke->OSTmrEntries = 1u;
    800011b4:	4605                	li	a2,1
        while (ptmr != (OS_TMR *)0) {
    800011b6:	0e051863          	bnez	a0,800012a6 <OSTmr_Task+0x1b2>
    if (OSRunning == OS_TRUE) {                            /* Make sure multitasking is running        */
    800011ba:	000ac703          	lbu	a4,0(s5)
    800011be:	4785                	li	a5,1
    800011c0:	f6f71ae3          	bne	a4,a5,80001134 <OSTmr_Task+0x40>
        OS_ENTER_CRITICAL();
    800011c4:	e3cff0ef          	jal	ra,80000800 <OS_CPU_SR_Save>
        if (OSLockNesting > 0u) {                          /* Do not decrement if already 0            */
    800011c8:	00044783          	lbu	a5,0(s0)
    800011cc:	16078f63          	beqz	a5,8000134a <OSTmr_Task+0x256>
            OSLockNesting--;                               /* Decrement lock nesting level             */
    800011d0:	37fd                	addiw	a5,a5,-1
    800011d2:	0ff7f793          	andi	a5,a5,255
    800011d6:	00f40023          	sb	a5,0(s0)
            if (OSLockNesting == 0u) {                     /* See if scheduler is enabled and ...      */
    800011da:	16079863          	bnez	a5,8000134a <OSTmr_Task+0x256>
                if (OSIntNesting == 0u) {                  /* ... not in an ISR                        */
    800011de:	00094783          	lbu	a5,0(s2)
    800011e2:	16079463          	bnez	a5,8000134a <OSTmr_Task+0x256>
                    OS_EXIT_CRITICAL();
    800011e6:	e24ff0ef          	jal	ra,8000080a <OS_CPU_SR_Restore>
                    OS_Sched();                            /* See if a HPT is ready                    */
    800011ea:	c6dff0ef          	jal	ra,80000e56 <OS_Sched>
    800011ee:	b73d                	j	8000111c <OSTmr_Task+0x28>
    OSTCBCur->OSTCBStat     |= OS_STAT_SEM;           /* Resource not available, pend on semaphore     */
    800011f0:	000a3783          	ld	a5,0(s4)
    800011f4:	0587c703          	lbu	a4,88(a5)
    pevent->OSEventTbl[OSTCBCur->OSTCBY] |= OSTCBCur->OSTCBBitX;    /* Put task in waiting list        */
    800011f8:	05c7c603          	lbu	a2,92(a5)
    OSTCBCur->OSTCBStatPend  = OS_STAT_PEND_OK;
    800011fc:	04078ca3          	sb	zero,89(a5)
    OSTCBCur->OSTCBStat     |= OS_STAT_SEM;           /* Resource not available, pend on semaphore     */
    80001200:	00176713          	ori	a4,a4,1
    80001204:	04e78c23          	sb	a4,88(a5)
    OSTCBCur->OSTCBDly       = timeout;               /* Store pend timeout in TCB                     */
    80001208:	0407aa23          	sw	zero,84(a5)
    OSTCBCur->OSTCBEventPtr               = pevent;                 /* Store ptr to ECB in TCB         */
    8000120c:	0357b823          	sd	s5,48(a5)
    pevent->OSEventTbl[OSTCBCur->OSTCBY] |= OSTCBCur->OSTCBBitX;    /* Put task in waiting list        */
    80001210:	00ca8533          	add	a0,s5,a2
    80001214:	05d7c703          	lbu	a4,93(a5)
    80001218:	01354683          	lbu	a3,19(a0)
    OSRdyTbl[y]  &= (OS_PRIO)~OSTCBCur->OSTCBBitX;
    8000121c:	9662                	add	a2,a2,s8
    pevent->OSEventTbl[OSTCBCur->OSTCBY] |= OSTCBCur->OSTCBBitX;    /* Put task in waiting list        */
    8000121e:	8ed9                	or	a3,a3,a4
    80001220:	00d509a3          	sb	a3,19(a0)
    pevent->OSEventGrp                   |= OSTCBCur->OSTCBBitY;
    80001224:	05e7c683          	lbu	a3,94(a5)
    80001228:	012ac783          	lbu	a5,18(s5)
    8000122c:	8fd5                	or	a5,a5,a3
    8000122e:	00fa8923          	sb	a5,18(s5)
    OSRdyTbl[y]  &= (OS_PRIO)~OSTCBCur->OSTCBBitX;
    80001232:	fff74793          	not	a5,a4
    80001236:	00064703          	lbu	a4,0(a2) # 2000000 <soc_func.c.4d39cff4+0x1fec413>
    8000123a:	8ff9                	and	a5,a5,a4
    8000123c:	00f60023          	sb	a5,0(a2)
    if (OSRdyTbl[y] == 0u) {                      /* Clear event grp bit if this was only task pending */
    80001240:	eb81                	bnez	a5,80001250 <OSTmr_Task+0x15c>
        OSRdyGrp &= (OS_PRIO)~OSTCBCur->OSTCBBitY;
    80001242:	000b4783          	lbu	a5,0(s6)
    80001246:	fff6c693          	not	a3,a3
    8000124a:	8efd                	and	a3,a3,a5
    8000124c:	00db0023          	sb	a3,0(s6)
    OS_EXIT_CRITICAL();
    80001250:	852e                	mv	a0,a1
    80001252:	db8ff0ef          	jal	ra,8000080a <OS_CPU_SR_Restore>
    OS_Sched();                                       /* Find next highest priority task ready         */
    80001256:	c01ff0ef          	jal	ra,80000e56 <OS_Sched>
    OS_ENTER_CRITICAL();
    8000125a:	da6ff0ef          	jal	ra,80000800 <OS_CPU_SR_Save>
    switch (OSTCBCur->OSTCBStatPend) {                /* See if we timed-out or aborted                */
    8000125e:	000a3783          	ld	a5,0(s4)
    80001262:	0597c703          	lbu	a4,89(a5)
    80001266:	0fd77713          	andi	a4,a4,253
    8000126a:	c71d                	beqz	a4,80001298 <OSTmr_Task+0x1a4>
    pevent->OSEventTbl[y]  &= (OS_PRIO)~ptcb->OSTCBBitX;    /* Remove task from wait list              */
    8000126c:	05c7c683          	lbu	a3,92(a5)
    80001270:	05d7c703          	lbu	a4,93(a5)
    80001274:	96d6                	add	a3,a3,s5
    80001276:	0136c603          	lbu	a2,19(a3)
    8000127a:	fff74713          	not	a4,a4
    8000127e:	8f71                	and	a4,a4,a2
    80001280:	00e689a3          	sb	a4,19(a3)
    if (pevent->OSEventTbl[y] == 0u) {
    80001284:	eb11                	bnez	a4,80001298 <OSTmr_Task+0x1a4>
        pevent->OSEventGrp &= (OS_PRIO)~ptcb->OSTCBBitY;
    80001286:	05e7c703          	lbu	a4,94(a5)
    8000128a:	012ac683          	lbu	a3,18(s5)
    8000128e:	fff74713          	not	a4,a4
    80001292:	8f75                	and	a4,a4,a3
    80001294:	00ea8923          	sb	a4,18(s5)
    OSTCBCur->OSTCBStat          =  OS_STAT_RDY;      /* Set   task  status to ready                   */
    80001298:	04079c23          	sh	zero,88(a5)
    OSTCBCur->OSTCBEventPtr      = (OS_EVENT  *)0;    /* Clear event pointers                          */
    8000129c:	0207b823          	sd	zero,48(a5)
    OSTCBCur->OSTCBEventMultiPtr = (OS_EVENT **)0;
    800012a0:	0207bc23          	sd	zero,56(a5)
    800012a4:	bd75                	j	80001160 <OSTmr_Task+0x6c>
            if (OSTmrTime == ptmr->OSTmrMatch) {                 /* Process each timer that expires                   */
    800012a6:	551c                	lw	a5,40(a0)
    800012a8:	000d2583          	lw	a1,0(s10)
            ptmr_next = (OS_TMR *)ptmr->OSTmrNext;               /* Point to next timer to update because current ... */
    800012ac:	01853c83          	ld	s9,24(a0)
            if (OSTmrTime == ptmr->OSTmrMatch) {                 /* Process each timer that expires                   */
    800012b0:	06b79863          	bne	a5,a1,80001320 <OSTmr_Task+0x22c>
    pspoke = &OSTmrWheelTbl[spoke];
    800012b4:	0075f713          	andi	a4,a1,7
    if (pspoke->OSTmrFirst == ptmr) {                       /* See if timer to remove is at the beginning of list     */
    800012b8:	0712                	slli	a4,a4,0x4
    800012ba:	00e487b3          	add	a5,s1,a4
    800012be:	0007b803          	ld	a6,0(a5)
    800012c2:	07051163          	bne	a0,a6,80001324 <OSTmr_Task+0x230>
        pspoke->OSTmrFirst = (OS_TMR *)ptmr1;
    800012c6:	0197b023          	sd	s9,0(a5)
        if (ptmr1 != (OS_TMR *)0) {
    800012ca:	000c8463          	beqz	s9,800012d2 <OSTmr_Task+0x1de>
            ptmr1->OSTmrPrev = (void *)0;
    800012ce:	020cb023          	sd	zero,32(s9)
    pspoke->OSTmrEntries--;
    800012d2:	9726                	add	a4,a4,s1
    800012d4:	00875783          	lhu	a5,8(a4)
    ptmr->OSTmrNext  = (void *)0;
    800012d8:	00053c23          	sd	zero,24(a0)
    ptmr->OSTmrPrev  = (void *)0;
    800012dc:	02053023          	sd	zero,32(a0)
    pspoke->OSTmrEntries--;
    800012e0:	37fd                	addiw	a5,a5,-1
    800012e2:	00f71423          	sh	a5,8(a4)
                if (ptmr->OSTmrOpt == OS_TMR_OPT_PERIODIC) {
    800012e6:	04054783          	lbu	a5,64(a0)
    800012ea:	05b79d63          	bne	a5,s11,80001344 <OSTmr_Task+0x250>
        ptmr->OSTmrMatch = ptmr->OSTmrPeriod + OSTmrTime;
    800012ee:	591c                	lw	a5,48(a0)
    ptmr->OSTmrState = OS_TMR_STATE_RUNNING;
    800012f0:	04d500a3          	sb	a3,65(a0)
        ptmr->OSTmrMatch = ptmr->OSTmrPeriod + OSTmrTime;
    800012f4:	9fad                	addw	a5,a5,a1
    800012f6:	d51c                	sw	a5,40(a0)
    pspoke = &OSTmrWheelTbl[spoke];
    800012f8:	8b9d                	andi	a5,a5,7
    if (pspoke->OSTmrFirst == (OS_TMR *)0) {                       /* Link into timer wheel                           */
    800012fa:	0792                	slli	a5,a5,0x4
    800012fc:	97a6                	add	a5,a5,s1
    800012fe:	6398                	ld	a4,0(a5)
        pspoke->OSTmrFirst   = ptmr;
    80001300:	e388                	sd	a0,0(a5)
    if (pspoke->OSTmrFirst == (OS_TMR *)0) {                       /* Link into timer wheel                           */
    80001302:	eb0d                	bnez	a4,80001334 <OSTmr_Task+0x240>
        ptmr->OSTmrNext      = (OS_TMR *)0;
    80001304:	00053c23          	sd	zero,24(a0)
        pspoke->OSTmrEntries = 1u;
    80001308:	00c79423          	sh	a2,8(a5)
    ptmr->OSTmrPrev = (void *)0;                                   /* Timer always inserted as first node in list     */
    8000130c:	02053023          	sd	zero,32(a0)
                    OSTmr_Link(ptmr, OS_TMR_LINK_PERIODIC);      /* Recalculate new position of timer in wheel        */
                } else {
                    ptmr->OSTmrState = OS_TMR_STATE_COMPLETED;   /* Indicate that the timer has completed             */
                }
                pfnct = ptmr->OSTmrCallback;                     /* Execute callback function if available            */
    80001310:	651c                	ld	a5,8(a0)
                if (pfnct != (OS_TMR_CALLBACK)0) {
    80001312:	c799                	beqz	a5,80001320 <OSTmr_Task+0x22c>
                    (*pfnct)((void *)ptmr, ptmr->OSTmrCallbackArg);
    80001314:	690c                	ld	a1,16(a0)
    80001316:	e432                	sd	a2,8(sp)
    80001318:	e036                	sd	a3,0(sp)
    8000131a:	9782                	jalr	a5
    8000131c:	6622                	ld	a2,8(sp)
    8000131e:	6682                	ld	a3,0(sp)
            ptmr_next = (OS_TMR *)ptmr->OSTmrNext;               /* Point to next timer to update because current ... */
    80001320:	8566                	mv	a0,s9
    80001322:	bd51                	j	800011b6 <OSTmr_Task+0xc2>
        ptmr1            = (OS_TMR *)ptmr->OSTmrPrev;       /* Remove timer from somewhere in the list                */
    80001324:	711c                	ld	a5,32(a0)
        ptmr1->OSTmrNext = ptmr2;
    80001326:	0197bc23          	sd	s9,24(a5)
        if (ptmr2 != (OS_TMR *)0) {
    8000132a:	fa0c84e3          	beqz	s9,800012d2 <OSTmr_Task+0x1de>
            ptmr2->OSTmrPrev = (void *)ptmr1;
    8000132e:	02fcb023          	sd	a5,32(s9)
    80001332:	b745                	j	800012d2 <OSTmr_Task+0x1de>
        ptmr->OSTmrNext      = (void *)ptmr1;
    80001334:	ed18                	sd	a4,24(a0)
        ptmr1->OSTmrPrev     = (void *)ptmr;
    80001336:	f308                	sd	a0,32(a4)
        pspoke->OSTmrEntries++;
    80001338:	0087d703          	lhu	a4,8(a5)
    8000133c:	2705                	addiw	a4,a4,1
    8000133e:	00e79423          	sh	a4,8(a5)
    80001342:	b7e9                	j	8000130c <OSTmr_Task+0x218>
                    ptmr->OSTmrState = OS_TMR_STATE_COMPLETED;   /* Indicate that the timer has completed             */
    80001344:	05b500a3          	sb	s11,65(a0)
    80001348:	b7e1                	j	80001310 <OSTmr_Task+0x21c>
            OS_EXIT_CRITICAL();
    8000134a:	cc0ff0ef          	jal	ra,8000080a <OS_CPU_SR_Restore>
    8000134e:	b3f9                	j	8000111c <OSTmr_Task+0x28>

0000000080001350 <OSTimeDly>:


    if (OSIntNesting > 0u) {                     /* See if trying to call from an ISR                  */
        return;
    }
    if (OSLockNesting > 0u) {                    /* See if called with scheduler locked                */
    80001350:	0ffff797          	auipc	a5,0xffff
    80001354:	27c7c783          	lbu	a5,636(a5) # 900005cc <OSIntNesting>
    80001358:	0ffff717          	auipc	a4,0xffff
    8000135c:	27574703          	lbu	a4,629(a4) # 900005cd <OSLockNesting>
    80001360:	8fd9                	or	a5,a5,a4
    80001362:	efb9                	bnez	a5,800013c0 <OSTimeDly+0x70>
{
    80001364:	69d012ef          	jal	t0,80003200 <__riscv_save_0>
    80001368:	842a                	mv	s0,a0
        return;
    }
    if (ticks > 0u) {                            /* 0 means no delay!                                  */
        OS_ENTER_CRITICAL();
    8000136a:	c96ff0ef          	jal	ra,80000800 <OS_CPU_SR_Save>
        y            =  OSTCBCur->OSTCBY;        /* Delay current task                                 */
    8000136e:	0ffff717          	auipc	a4,0xffff
    80001372:	27a73703          	ld	a4,634(a4) # 900005e8 <OSTCBCur>
        OSRdyTbl[y] &= (OS_PRIO)~OSTCBCur->OSTCBBitX;
    80001376:	05c74603          	lbu	a2,92(a4)
    8000137a:	0ffff697          	auipc	a3,0xffff
    8000137e:	25e68693          	addi	a3,a3,606 # 900005d8 <OSRdyTbl>
    80001382:	05d74783          	lbu	a5,93(a4)
    80001386:	96b2                	add	a3,a3,a2
    80001388:	0006c603          	lbu	a2,0(a3)
    8000138c:	fff7c793          	not	a5,a5
    80001390:	8ff1                	and	a5,a5,a2
    80001392:	00f68023          	sb	a5,0(a3)
        if (OSRdyTbl[y] == 0u) {
    80001396:	ef91                	bnez	a5,800013b2 <OSTimeDly+0x62>
            OSRdyGrp &= (OS_PRIO)~OSTCBCur->OSTCBBitY;
    80001398:	0ffff697          	auipc	a3,0xffff
    8000139c:	23868693          	addi	a3,a3,568 # 900005d0 <OSRdyGrp>
    800013a0:	05e74783          	lbu	a5,94(a4)
    800013a4:	0006c603          	lbu	a2,0(a3)
    800013a8:	fff7c793          	not	a5,a5
    800013ac:	8ff1                	and	a5,a5,a2
    800013ae:	00f68023          	sb	a5,0(a3)
        }
        OSTCBCur->OSTCBDly = ticks;              /* Load ticks in TCB                                  */
    800013b2:	cb60                	sw	s0,84(a4)
        OS_EXIT_CRITICAL();
    800013b4:	c56ff0ef          	jal	ra,8000080a <OS_CPU_SR_Restore>
        OS_Sched();                              /* Find next task to run!                             */
    800013b8:	a9fff0ef          	jal	ra,80000e56 <OS_Sched>
    }
}
    800013bc:	66f0106f          	j	8000322a <__riscv_restore_0>
    800013c0:	8082                	ret

00000000800013c2 <task1>:
{
    800013c2:	61f012ef          	jal	t0,800031e0 <__riscv_save_4>
	int cnt=0;
    800013c6:	4401                	li	s0,0
		printf("task1 is runing... %d\n",cnt);
    800013c8:	0ffff997          	auipc	s3,0xffff
    800013cc:	c6098993          	addi	s3,s3,-928 # 90000028 <_data+0x28>
     GPIO_REG(GPIO_OUTPUT_VAL) ^= (0x1 << BLUE_LED_GPIO_OFFSET);
    800013d0:	100124b7          	lui	s1,0x10012
    800013d4:	00400937          	lui	s2,0x400
		cnt++;
    800013d8:	2405                	addiw	s0,s0,1
		printf("task1 is runing... %d\n",cnt);
    800013da:	85a2                	mv	a1,s0
    800013dc:	854e                	mv	a0,s3
    800013de:	429000ef          	jal	ra,80002006 <iprintf>
     GPIO_REG(GPIO_OUTPUT_VAL) ^= (0x1 << BLUE_LED_GPIO_OFFSET);
    800013e2:	44dc                	lw	a5,12(s1)
		OSTimeDly(200);
    800013e4:	0c800513          	li	a0,200
     GPIO_REG(GPIO_OUTPUT_VAL) ^= (0x1 << BLUE_LED_GPIO_OFFSET);
    800013e8:	2781                	sext.w	a5,a5
    800013ea:	0127c7b3          	xor	a5,a5,s2
    800013ee:	c4dc                	sw	a5,12(s1)
		OSTimeDly(200);
    800013f0:	f61ff0ef          	jal	ra,80001350 <OSTimeDly>
	for(;;)
    800013f4:	b7d5                	j	800013d8 <task1+0x16>

00000000800013f6 <task2>:
{
    800013f6:	5eb012ef          	jal	t0,800031e0 <__riscv_save_4>
	int cnt=0;
    800013fa:	4401                	li	s0,0
		printf("task2 is runing... %d\n",cnt);
    800013fc:	0ffff997          	auipc	s3,0xffff
    80001400:	c4498993          	addi	s3,s3,-956 # 90000040 <_data+0x40>
     GPIO_REG(GPIO_OUTPUT_VAL) ^= (0x1 << GREEN_LED_GPIO_OFFSET);
    80001404:	100124b7          	lui	s1,0x10012
    80001408:	00200937          	lui	s2,0x200
		cnt++;
    8000140c:	2405                	addiw	s0,s0,1
		printf("task2 is runing... %d\n",cnt);
    8000140e:	85a2                	mv	a1,s0
    80001410:	854e                	mv	a0,s3
    80001412:	3f5000ef          	jal	ra,80002006 <iprintf>
     GPIO_REG(GPIO_OUTPUT_VAL) ^= (0x1 << GREEN_LED_GPIO_OFFSET);
    80001416:	44dc                	lw	a5,12(s1)
		OSTimeDly(100);
    80001418:	06400513          	li	a0,100
     GPIO_REG(GPIO_OUTPUT_VAL) ^= (0x1 << GREEN_LED_GPIO_OFFSET);
    8000141c:	2781                	sext.w	a5,a5
    8000141e:	0127c7b3          	xor	a5,a5,s2
    80001422:	c4dc                	sw	a5,12(s1)
		OSTimeDly(100);
    80001424:	f2dff0ef          	jal	ra,80001350 <OSTimeDly>
	for(;;)
    80001428:	b7d5                	j	8000140c <task2+0x16>

000000008000142a <task3>:
{
    8000142a:	5c3012ef          	jal	t0,800031ec <__riscv_save_2>
	int cnt=0;
    8000142e:	4401                	li	s0,0
		printf("task3 is runing... %d\n",cnt);
    80001430:	0ffff497          	auipc	s1,0xffff
    80001434:	c2848493          	addi	s1,s1,-984 # 90000058 <_data+0x58>
		cnt++;
    80001438:	2405                	addiw	s0,s0,1
		printf("task3 is runing... %d\n",cnt);
    8000143a:	85a2                	mv	a1,s0
    8000143c:	8526                	mv	a0,s1
    8000143e:	3c9000ef          	jal	ra,80002006 <iprintf>
		OSTimeDly(100);
    80001442:	06400513          	li	a0,100
    80001446:	f0bff0ef          	jal	ra,80001350 <OSTimeDly>
	for(;;)
    8000144a:	b7fd                	j	80001438 <task3+0xe>

000000008000144c <OSTaskSuspend>:
{
    8000144c:	5a1012ef          	jal	t0,800031ec <__riscv_save_2>
    80001450:	84aa                	mv	s1,a0
    OS_ENTER_CRITICAL();
    80001452:	baeff0ef          	jal	ra,80000800 <OS_CPU_SR_Save>
    if (prio == OS_PRIO_SELF) {                                 /* See if suspend SELF                 */
    80001456:	0ffff797          	auipc	a5,0xffff
    8000145a:	19278793          	addi	a5,a5,402 # 900005e8 <OSTCBCur>
    8000145e:	0ff00713          	li	a4,255
        prio = OSTCBCur->OSTCBPrio;
    80001462:	639c                	ld	a5,0(a5)
    if (prio == OS_PRIO_SELF) {                                 /* See if suspend SELF                 */
    80001464:	02e49263          	bne	s1,a4,80001488 <OSTaskSuspend+0x3c>
        prio = OSTCBCur->OSTCBPrio;
    80001468:	05a7c483          	lbu	s1,90(a5)
        self = OS_TRUE;
    8000146c:	4405                	li	s0,1
    ptcb = OSTCBPrioTbl[prio];
    8000146e:	c7018793          	addi	a5,gp,-912 # 90000a10 <OSTCBPrioTbl>
    80001472:	048e                	slli	s1,s1,0x3
    80001474:	94be                	add	s1,s1,a5
    80001476:	609c                	ld	a5,0(s1)
    if (ptcb == (OS_TCB *)0) {                                  /* Task to suspend must exist          */
    80001478:	ef91                	bnez	a5,80001494 <OSTaskSuspend+0x48>
        OS_EXIT_CRITICAL();
    8000147a:	b90ff0ef          	jal	ra,8000080a <OS_CPU_SR_Restore>
        return (OS_ERR_TASK_SUSPEND_PRIO);
    8000147e:	04800413          	li	s0,72
}
    80001482:	8522                	mv	a0,s0
    80001484:	5a10106f          	j	80003224 <__riscv_restore_2>
    } else if (prio == OSTCBCur->OSTCBPrio) {                   /* See if suspending self              */
    80001488:	05a7c403          	lbu	s0,90(a5)
    8000148c:	8c05                	sub	s0,s0,s1
        self = OS_TRUE;
    8000148e:	00143413          	seqz	s0,s0
    80001492:	bff1                	j	8000146e <OSTaskSuspend+0x22>
    if (ptcb == OS_TCB_RESERVED) {                              /* See if assigned to Mutex            */
    80001494:	4705                	li	a4,1
    80001496:	00e79763          	bne	a5,a4,800014a4 <OSTaskSuspend+0x58>
        OS_EXIT_CRITICAL();
    8000149a:	b70ff0ef          	jal	ra,8000080a <OS_CPU_SR_Restore>
        return (OS_ERR_TASK_NOT_EXIST);
    8000149e:	04300413          	li	s0,67
    800014a2:	b7c5                	j	80001482 <OSTaskSuspend+0x36>
    OSRdyTbl[y] &= (OS_PRIO)~ptcb->OSTCBBitX;                   /* Make task not ready                 */
    800014a4:	05c7c603          	lbu	a2,92(a5)
    800014a8:	0ffff697          	auipc	a3,0xffff
    800014ac:	13068693          	addi	a3,a3,304 # 900005d8 <OSRdyTbl>
    800014b0:	05d7c703          	lbu	a4,93(a5)
    800014b4:	96b2                	add	a3,a3,a2
    800014b6:	0006c603          	lbu	a2,0(a3)
    800014ba:	fff74713          	not	a4,a4
    800014be:	8f71                	and	a4,a4,a2
    800014c0:	00e68023          	sb	a4,0(a3)
    if (OSRdyTbl[y] == 0u) {
    800014c4:	ef11                	bnez	a4,800014e0 <OSTaskSuspend+0x94>
        OSRdyGrp &= (OS_PRIO)~ptcb->OSTCBBitY;
    800014c6:	0ffff697          	auipc	a3,0xffff
    800014ca:	10a68693          	addi	a3,a3,266 # 900005d0 <OSRdyGrp>
    800014ce:	05e7c703          	lbu	a4,94(a5)
    800014d2:	0006c603          	lbu	a2,0(a3)
    800014d6:	fff74713          	not	a4,a4
    800014da:	8f71                	and	a4,a4,a2
    800014dc:	00e68023          	sb	a4,0(a3)
    ptcb->OSTCBStat |= OS_STAT_SUSPEND;                         /* Status of task is 'SUSPENDED'       */
    800014e0:	0587c703          	lbu	a4,88(a5)
    800014e4:	00876713          	ori	a4,a4,8
    800014e8:	04e78c23          	sb	a4,88(a5)
    OS_EXIT_CRITICAL();
    800014ec:	b1eff0ef          	jal	ra,8000080a <OS_CPU_SR_Restore>
    if (self == OS_TRUE) {                                      /* Context switch only if SELF         */
    800014f0:	4785                	li	a5,1
    800014f2:	f8f418e3          	bne	s0,a5,80001482 <OSTaskSuspend+0x36>
        OS_Sched();                                             /* Find new highest priority task      */
    800014f6:	961ff0ef          	jal	ra,80000e56 <OS_Sched>
    return (OS_ERR_NONE);
    800014fa:	4401                	li	s0,0
    800014fc:	b759                	j	80001482 <OSTaskSuspend+0x36>

00000000800014fe <start_task>:
{
    800014fe:	503012ef          	jal	t0,80003200 <__riscv_save_0>
	printf("start all task...\n");
    80001502:	0ffff517          	auipc	a0,0xffff
    80001506:	b6e50513          	addi	a0,a0,-1170 # 90000070 <_data+0x70>
    8000150a:	425000ef          	jal	ra,8000212e <puts>
  OSTaskCreate(task1,NULL,&task1_stk[STK_LEN-1],TASK1_PRIO);
    8000150e:	4635                	li	a2,13
    80001510:	10005597          	auipc	a1,0x10005
    80001514:	45858593          	addi	a1,a1,1112 # 90006968 <task1_stk+0x1ff8>
    80001518:	00000517          	auipc	a0,0x0
    8000151c:	eaa50513          	addi	a0,a0,-342 # 800013c2 <task1>
    80001520:	acbff0ef          	jal	ra,80000fea <OSTaskCreate.constprop.0>
	OSTaskCreate(task2,NULL,&task2_stk[STK_LEN-1],TASK2_PRIO);
    80001524:	4631                	li	a2,12
    80001526:	10007597          	auipc	a1,0x10007
    8000152a:	44258593          	addi	a1,a1,1090 # 90008968 <task2_stk+0x1ff8>
    8000152e:	00000517          	auipc	a0,0x0
    80001532:	ec850513          	addi	a0,a0,-312 # 800013f6 <task2>
    80001536:	ab5ff0ef          	jal	ra,80000fea <OSTaskCreate.constprop.0>
  OSTaskCreate(task3,NULL,&task3_stk[STK_LEN-1],TASK3_PRIO);
    8000153a:	462d                	li	a2,11
    8000153c:	10009597          	auipc	a1,0x10009
    80001540:	42c58593          	addi	a1,a1,1068 # 9000a968 <task3_stk+0x1ff8>
    80001544:	00000517          	auipc	a0,0x0
    80001548:	ee650513          	addi	a0,a0,-282 # 8000142a <task3>
    8000154c:	a9fff0ef          	jal	ra,80000fea <OSTaskCreate.constprop.0>
  OSTaskSuspend(TASK_START_PRIO);
    80001550:	4529                	li	a0,10
    80001552:	efbff0ef          	jal	ra,8000144c <OSTaskSuspend>
}
    80001556:	4d50106f          	j	8000322a <__riscv_restore_0>

000000008000155a <OS_TaskStat>:
{
    8000155a:	47b012ef          	jal	t0,800031d4 <__riscv_save_6>
    while (OSStatRdy == OS_FALSE) {
    8000155e:	0ffff417          	auipc	s0,0xffff
    80001562:	08340413          	addi	s0,s0,131 # 900005e1 <OSStatRdy>
    80001566:	00044783          	lbu	a5,0(s0)
    8000156a:	cbad                	beqz	a5,800015dc <OS_TaskStat+0x82>
    OSIdleCtrMax /= 100uL;
    8000156c:	0ffff697          	auipc	a3,0xffff
    80001570:	05868693          	addi	a3,a3,88 # 900005c4 <OSIdleCtrMax>
    80001574:	4298                	lw	a4,0(a3)
    80001576:	06400793          	li	a5,100
    8000157a:	02f757bb          	divuw	a5,a4,a5
    8000157e:	c29c                	sw	a5,0(a3)
    if (OSIdleCtrMax == 0uL) {
    80001580:	06300793          	li	a5,99
    80001584:	00e7e663          	bltu	a5,a4,80001590 <OS_TaskStat+0x36>
        (void)OSTaskSuspend(OS_PRIO_SELF);
    80001588:	0ff00513          	li	a0,255
    8000158c:	ec1ff0ef          	jal	ra,8000144c <OSTaskSuspend>
        OSIdleCtrRun = OSIdleCtr;                /* Obtain the of the idle counter for the past second */
    80001590:	0ffffa17          	auipc	s4,0xffff
    80001594:	030a0a13          	addi	s4,s4,48 # 900005c0 <OSIdleCtr>
    80001598:	0ffffa97          	auipc	s5,0xffff
    8000159c:	030a8a93          	addi	s5,s5,48 # 900005c8 <OSIdleCtrRun>
    800015a0:	e7018993          	addi	s3,gp,-400 # 90000c10 <OSTCBTbl>
    if (ptcb == OS_TCB_RESERVED) {
    800015a4:	4905                	li	s2,1
        OS_ENTER_CRITICAL();
    800015a6:	a5aff0ef          	jal	ra,80000800 <OS_CPU_SR_Save>
        OSIdleCtrRun = OSIdleCtr;                /* Obtain the of the idle counter for the past second */
    800015aa:	000a2783          	lw	a5,0(s4)
    800015ae:	c7018413          	addi	s0,gp,-912 # 90000a10 <OSTCBPrioTbl>
    800015b2:	00faa023          	sw	a5,0(s5)
        OSIdleCtr    = 0uL;                      /* Reset the idle counter for the next second         */
    800015b6:	0ffff797          	auipc	a5,0xffff
    800015ba:	0007a523          	sw	zero,10(a5) # 900005c0 <OSIdleCtr>
        OS_EXIT_CRITICAL();
    800015be:	a4cff0ef          	jal	ra,8000080a <OS_CPU_SR_Restore>
    OS_ENTER_CRITICAL();
    800015c2:	a3eff0ef          	jal	ra,80000800 <OS_CPU_SR_Save>
    ptcb = OSTCBPrioTbl[prio];
    800015c6:	601c                	ld	a5,0(s0)
    if (ptcb == (OS_TCB *)0) {                         /* Make sure task exist                         */
    800015c8:	ef91                	bnez	a5,800015e4 <OS_TaskStat+0x8a>
        OS_EXIT_CRITICAL();
    800015ca:	a40ff0ef          	jal	ra,8000080a <OS_CPU_SR_Restore>
    for (prio = 0u; prio <= OS_TASK_IDLE_PRIO; prio++) {
    800015ce:	0421                	addi	s0,s0,8
    800015d0:	fe8999e3          	bne	s3,s0,800015c2 <OS_TaskStat+0x68>
        OSTimeDly(OS_TICKS_PER_SEC / 10u);       /* Accumulate OSIdleCtr for the next 1/10 second      */
    800015d4:	4529                	li	a0,10
    800015d6:	d7bff0ef          	jal	ra,80001350 <OSTimeDly>
    for (;;) {
    800015da:	b7f1                	j	800015a6 <OS_TaskStat+0x4c>
        OSTimeDly(2u * OS_TICKS_PER_SEC / 10u);  /* Wait until statistic task is ready                 */
    800015dc:	4551                	li	a0,20
    800015de:	d73ff0ef          	jal	ra,80001350 <OSTimeDly>
    800015e2:	b751                	j	80001566 <OS_TaskStat+0xc>
    if (ptcb == OS_TCB_RESERVED) {
    800015e4:	ff2783e3          	beq	a5,s2,800015ca <OS_TaskStat+0x70>
    if ((ptcb->OSTCBOpt & OS_TASK_OPT_STK_CHK) == 0u) { /* Make sure stack checking option is set      */
    800015e8:	01c7d703          	lhu	a4,28(a5)
    800015ec:	8b05                	andi	a4,a4,1
    800015ee:	df71                	beqz	a4,800015ca <OS_TaskStat+0x70>
    size  = ptcb->OSTCBStkSize;
    800015f0:	4f84                	lw	s1,24(a5)
    pchk  = ptcb->OSTCBStkBottom;
    800015f2:	0107bb03          	ld	s6,16(a5)
    OS_EXIT_CRITICAL();
    800015f6:	a14ff0ef          	jal	ra,8000080a <OS_CPU_SR_Restore>
    800015fa:	4781                	li	a5,0
    800015fc:	0007861b          	sext.w	a2,a5
    while (*pchk++ == (OS_STK)0) {                    /* Compute the number of zero entries on the stk */
    80001600:	0785                	addi	a5,a5,1
    80001602:	00379713          	slli	a4,a5,0x3
    80001606:	975a                	add	a4,a4,s6
    80001608:	ff873703          	ld	a4,-8(a4)
    8000160c:	db65                	beqz	a4,800015fc <OS_TaskStat+0xa2>
            ptcb = OSTCBPrioTbl[prio];
    8000160e:	601c                	ld	a5,0(s0)
            if (ptcb != (OS_TCB *)0) {                               /* Make sure task 'ptcb' is ...   */
    80001610:	dfdd                	beqz	a5,800015ce <OS_TaskStat+0x74>
                if (ptcb != OS_TCB_RESERVED) {                       /* ... still valid.               */
    80001612:	fb278ee3          	beq	a5,s2,800015ce <OS_TaskStat+0x74>
                    ptcb->OSTCBStkBase = ptcb->OSTCBStkBottom + ptcb->OSTCBStkSize;
    80001616:	0187e703          	lwu	a4,24(a5)
    p_stk_data->OSUsed = (size - nfree) * sizeof(OS_STK); /* Compute number of bytes used on the stack */
    8000161a:	9c91                	subw	s1,s1,a2
    8000161c:	0034949b          	slliw	s1,s1,0x3
    80001620:	00371693          	slli	a3,a4,0x3
    80001624:	6b98                	ld	a4,16(a5)
                    ptcb->OSTCBStkUsed = stk_data.OSUsed;            /* Store the number of bytes used */
    80001626:	dfa4                	sw	s1,120(a5)
                    ptcb->OSTCBStkBase = ptcb->OSTCBStkBottom + ptcb->OSTCBStkSize;
    80001628:	9736                	add	a4,a4,a3
    8000162a:	fbb8                	sd	a4,112(a5)
                    ptcb->OSTCBStkUsed = stk_data.OSUsed;            /* Store the number of bytes used */
    8000162c:	b74d                	j	800015ce <OS_TaskStat+0x74>

000000008000162e <_isatty>:

#include <unistd.h>

int _isatty(int fd)
{
  if (fd == STDOUT_FILENO || fd == STDERR_FILENO)
    8000162e:	357d                	addiw	a0,a0,-1
    return 1;

  return 0;
}
    80001630:	00253513          	sltiu	a0,a0,2
    80001634:	8082                	ret

0000000080001636 <_write>:
#include <sys/types.h>

#include "soc/drivers/soc.h"

ssize_t _write(int fd, const void* ptr, size_t len)
{
    80001636:	3b7012ef          	jal	t0,800031ec <__riscv_save_2>
    8000163a:	842e                	mv	s0,a1
    8000163c:	84b2                	mv	s1,a2
  const uint8_t * current = (const char *)ptr;

  if (isatty(fd)) {
    8000163e:	664000ef          	jal	ra,80001ca2 <isatty>
    80001642:	c129                	beqz	a0,80001684 <_write+0x4e>
    80001644:	85a2                	mv	a1,s0
    80001646:	00940733          	add	a4,s0,s1
    for (size_t jj = 0; jj < len; jj++) {
      while (UART0_REG(UART_REG_TXFIFO) & 0x80000000) ;
    8000164a:	100137b7          	lui	a5,0x10013
      UART0_REG(UART_REG_TXFIFO) = current[jj];

      if (current[jj] == '\n') {
    8000164e:	46a9                	li	a3,10
        while (UART0_REG(UART_REG_TXFIFO) & 0x80000000) ;
        UART0_REG(UART_REG_TXFIFO) = '\r';
    80001650:	4635                	li	a2,13
    for (size_t jj = 0; jj < len; jj++) {
    80001652:	00e59563          	bne	a1,a4,8000165c <_write+0x26>
      }
    }
    return len;
    80001656:	8526                	mv	a0,s1
  }

  return -1;
}
    80001658:	3cd0106f          	j	80003224 <__riscv_restore_2>
      while (UART0_REG(UART_REG_TXFIFO) & 0x80000000) ;
    8000165c:	4388                	lw	a0,0(a5)
    8000165e:	02051413          	slli	s0,a0,0x20
    80001662:	fe044de3          	bltz	s0,8000165c <_write+0x26>
      UART0_REG(UART_REG_TXFIFO) = current[jj];
    80001666:	0005c503          	lbu	a0,0(a1)
    8000166a:	c388                	sw	a0,0(a5)
      if (current[jj] == '\n') {
    8000166c:	0005c503          	lbu	a0,0(a1)
    80001670:	00d51863          	bne	a0,a3,80001680 <_write+0x4a>
        while (UART0_REG(UART_REG_TXFIFO) & 0x80000000) ;
    80001674:	4388                	lw	a0,0(a5)
    80001676:	02051413          	slli	s0,a0,0x20
    8000167a:	fe044de3          	bltz	s0,80001674 <_write+0x3e>
        UART0_REG(UART_REG_TXFIFO) = '\r';
    8000167e:	c390                	sw	a2,0(a5)
    for (size_t jj = 0; jj < len; jj++) {
    80001680:	0585                	addi	a1,a1,1
    80001682:	bfc1                	j	80001652 <_write+0x1c>
  return -1;
    80001684:	557d                	li	a0,-1
    80001686:	bfc9                	j	80001658 <_write+0x22>

0000000080001688 <_fini>:
  #endif
}

void _fini()
{
}
    80001688:	8082                	ret

000000008000168a <_init>:
{
    8000168a:	377012ef          	jal	t0,80003200 <__riscv_save_0>
#include "core/drivers/func.h"


void uart_init(size_t baud_rate)
{
  GPIO_REG(GPIO_IOF_SEL) &= ~IOF0_UART0_MASK;
    8000168e:	10012737          	lui	a4,0x10012
    80001692:	5f5c                	lw	a5,60(a4)
    80001694:	fffd06b7          	lui	a3,0xfffd0
    80001698:	16fd                	addi	a3,a3,-1
    8000169a:	2781                	sext.w	a5,a5
    8000169c:	8ff5                	and	a5,a5,a3
    8000169e:	df5c                	sw	a5,60(a4)
  GPIO_REG(GPIO_IOF_EN) |= IOF0_UART0_MASK;
    800016a0:	5f1c                	lw	a5,56(a4)
    800016a2:	000306b7          	lui	a3,0x30
  measure_cpu_freq(1);
    800016a6:	4505                	li	a0,1
    800016a8:	2781                	sext.w	a5,a5
    800016aa:	8fd5                	or	a5,a5,a3
    800016ac:	df1c                	sw	a5,56(a4)
    800016ae:	cd2ff0ef          	jal	ra,80000b80 <measure_cpu_freq>
  cpu_freq = measure_cpu_freq(10000);
    800016b2:	6409                	lui	s0,0x2
    800016b4:	71040513          	addi	a0,s0,1808 # 2710 <__stack_size+0x1f10>
    800016b8:	cc8ff0ef          	jal	ra,80000b80 <measure_cpu_freq>
  UART0_REG(UART_REG_DIV) = get_cpu_freq() / baud_rate - 1;
    800016bc:	67f1                	lui	a5,0x1c
    800016be:	20078793          	addi	a5,a5,512 # 1c200 <soc_func.c.4d39cff4+0x8613>
    800016c2:	02f55533          	divu	a0,a0,a5
    800016c6:	100137b7          	lui	a5,0x10013
    800016ca:	357d                	addiw	a0,a0,-1
    800016cc:	cf88                	sw	a0,24(a5)
  UART0_REG(UART_REG_TXCTRL) |= UART_TXEN;
    800016ce:	4798                	lw	a4,8(a5)
  printf("**************************************\n");
    800016d0:	0ffff517          	auipc	a0,0xffff
    800016d4:	9c050513          	addi	a0,a0,-1600 # 90000090 <_data+0x90>
    800016d8:	2701                	sext.w	a4,a4
    800016da:	00176713          	ori	a4,a4,1
    800016de:	c798                	sw	a4,8(a5)
  UART0_REG(UART_REG_RXCTRL) |= UART_RXEN;
    800016e0:	47d8                	lw	a4,12(a5)
    800016e2:	2701                	sext.w	a4,a4
    800016e4:	00176713          	ori	a4,a4,1
    800016e8:	c7d8                	sw	a4,12(a5)
    800016ea:	245000ef          	jal	ra,8000212e <puts>
  printf("**************************************\n");
    800016ee:	0ffff517          	auipc	a0,0xffff
    800016f2:	9a250513          	addi	a0,a0,-1630 # 90000090 <_data+0x90>
    800016f6:	239000ef          	jal	ra,8000212e <puts>
  printf("*                                    *\n");
    800016fa:	0ffff517          	auipc	a0,0xffff
    800016fe:	9be50513          	addi	a0,a0,-1602 # 900000b8 <_data+0xb8>
    80001702:	22d000ef          	jal	ra,8000212e <puts>
  measure_cpu_freq(1);
    80001706:	4505                	li	a0,1
    80001708:	c78ff0ef          	jal	ra,80000b80 <measure_cpu_freq>
  cpu_freq = measure_cpu_freq(10000);
    8000170c:	71040513          	addi	a0,s0,1808
    80001710:	c70ff0ef          	jal	ra,80000b80 <measure_cpu_freq>
    80001714:	85aa                	mv	a1,a0
  printf("Core freq at %d Hz\n", get_cpu_freq());
    80001716:	0ffff517          	auipc	a0,0xffff
    8000171a:	9ca50513          	addi	a0,a0,-1590 # 900000e0 <_data+0xe0>
    8000171e:	0e9000ef          	jal	ra,80002006 <iprintf>
  printf("*                                    *\n");
    80001722:	0ffff517          	auipc	a0,0xffff
    80001726:	99650513          	addi	a0,a0,-1642 # 900000b8 <_data+0xb8>
    8000172a:	205000ef          	jal	ra,8000212e <puts>
  printf("**************************************\n");
    8000172e:	0ffff517          	auipc	a0,0xffff
    80001732:	96250513          	addi	a0,a0,-1694 # 90000090 <_data+0x90>
    80001736:	1f9000ef          	jal	ra,8000212e <puts>
  printf("**************************************\n");
    8000173a:	0ffff517          	auipc	a0,0xffff
    8000173e:	95650513          	addi	a0,a0,-1706 # 90000090 <_data+0x90>
    80001742:	1ed000ef          	jal	ra,8000212e <puts>
  *(volatile uint8_t*)(ECLIC_ADDR_BASE+ECLIC_CFG_OFFSET)=0;
    80001746:	0c0007b7          	lui	a5,0xc000
    8000174a:	00078023          	sb	zero,0(a5) # c000000 <soc_func.c.4d39cff4+0xbfec413>
  *(volatile uint8_t*)(ECLIC_ADDR_BASE+ECLIC_MTH_OFFSET)=0;
    8000174e:	000785a3          	sb	zero,11(a5)
  for (ptr = base; ptr < upper; ptr=ptr+4){
    80001752:	0c0017b7          	lui	a5,0xc001
    80001756:	33078713          	addi	a4,a5,816 # c001330 <soc_func.c.4d39cff4+0xbfed743>
    *ptr = 0;
    8000175a:	0007a023          	sw	zero,0(a5)
  for (ptr = base; ptr < upper; ptr=ptr+4){
    8000175e:	07c1                	addi	a5,a5,16
    80001760:	fee79de3          	bne	a5,a4,8000175a <_init+0xd0>
  unsigned long mtvec_value = read_csr(mtvec);
    80001764:	305027f3          	csrr	a5,mtvec
  mtvec_value = mtvec_value & 0xFFFFFFC0;
    80001768:	4705                	li	a4,1
    8000176a:	1702                	slli	a4,a4,0x20
    8000176c:	fc070713          	addi	a4,a4,-64 # 10011fc0 <soc_func.c.4d39cff4+0xfffe3d3>
    80001770:	8ff9                	and	a5,a5,a4
  mtvec_value = mtvec_value | 0x00000003;
    80001772:	0037e793          	ori	a5,a5,3
  write_csr(mtvec,mtvec_value);
    80001776:	30579073          	csrw	mtvec,a5
  disable_mcycle_minstret();
    8000177a:	afffe0ef          	jal	ra,80000278 <disable_mcycle_minstret>
}
    8000177e:	2ad0106f          	j	8000322a <__riscv_restore_0>

0000000080001782 <OSTaskSwHook>:
}
    80001782:	8082                	ret

0000000080001784 <eclic_irq50_handler>:
void BUTTON_2_HANDLER(void) {
    80001784:	27d012ef          	jal	t0,80003200 <__riscv_save_0>
    printf ("%s","--------Begin button2 handler\n");
    80001788:	0ffff517          	auipc	a0,0xffff
    8000178c:	a0050513          	addi	a0,a0,-1536 # 90000188 <_data+0x188>
    80001790:	19f000ef          	jal	ra,8000212e <puts>
    printf ("%s","--------Higher level\n");
    80001794:	0ffff517          	auipc	a0,0xffff
    80001798:	a1450513          	addi	a0,a0,-1516 # 900001a8 <_data+0x1a8>
    8000179c:	193000ef          	jal	ra,8000212e <puts>
    GPIO_REG(GPIO_OUTPUT_VAL) ^= (0x1 << GREEN_LED_GPIO_OFFSET);
    800017a0:	10012437          	lui	s0,0x10012
    800017a4:	445c                	lw	a5,12(s0)
    800017a6:	00200737          	lui	a4,0x200
    800017aa:	2781                	sext.w	a5,a5
    800017ac:	8fb9                	xor	a5,a5,a4
    800017ae:	c45c                	sw	a5,12(s0)
    wait_seconds(5);
    800017b0:	ba2ff0ef          	jal	ra,80000b52 <wait_seconds.constprop.0>
    printf ("%s","--------End button2 handler\n");    
    800017b4:	0ffff517          	auipc	a0,0xffff
    800017b8:	a0c50513          	addi	a0,a0,-1524 # 900001c0 <_data+0x1c0>
    800017bc:	173000ef          	jal	ra,8000212e <puts>
    GPIO_REG(GPIO_RISE_IP) = (0x1 << BUTTON_2_GPIO_OFFSET);
    800017c0:	800007b7          	lui	a5,0x80000
    800017c4:	cc5c                	sw	a5,28(s0)
};
    800017c6:	2650106f          	j	8000322a <__riscv_restore_0>

00000000800017ca <eclic_irq49_handler>:
void BUTTON_1_HANDLER(void) {   
    800017ca:	237012ef          	jal	t0,80003200 <__riscv_save_0>
    printf ("%s","----Begin button1 handler\n");
    800017ce:	0ffff517          	auipc	a0,0xffff
    800017d2:	a1250513          	addi	a0,a0,-1518 # 900001e0 <_data+0x1e0>
    800017d6:	159000ef          	jal	ra,8000212e <puts>
    GPIO_REG(GPIO_OUTPUT_VAL) ^= (0x1 << BLUE_LED_GPIO_OFFSET);
    800017da:	10012437          	lui	s0,0x10012
    800017de:	445c                	lw	a5,12(s0)
    800017e0:	00400737          	lui	a4,0x400
    printf ("%s","----red LED off or on\n");
    800017e4:	0ffff517          	auipc	a0,0xffff
    800017e8:	a1c50513          	addi	a0,a0,-1508 # 90000200 <_data+0x200>
    GPIO_REG(GPIO_OUTPUT_VAL) ^= (0x1 << BLUE_LED_GPIO_OFFSET);
    800017ec:	2781                	sext.w	a5,a5
    800017ee:	8fb9                	xor	a5,a5,a4
    800017f0:	c45c                	sw	a5,12(s0)
    printf ("%s","----red LED off or on\n");
    800017f2:	13d000ef          	jal	ra,8000212e <puts>
    wait_seconds(5);
    800017f6:	b5cff0ef          	jal	ra,80000b52 <wait_seconds.constprop.0>
    printf ("%s","----End button1 handler\n");
    800017fa:	0ffff517          	auipc	a0,0xffff
    800017fe:	a1e50513          	addi	a0,a0,-1506 # 90000218 <_data+0x218>
    80001802:	12d000ef          	jal	ra,8000212e <puts>
    GPIO_REG(GPIO_RISE_IP) = (0x1 << BUTTON_1_GPIO_OFFSET);  
    80001806:	400007b7          	lui	a5,0x40000
    8000180a:	cc5c                	sw	a5,28(s0)
};
    8000180c:	21f0106f          	j	8000322a <__riscv_restore_0>

0000000080001810 <timer_irq_handler>:
{
    80001810:	1c5012ef          	jal	t0,800031d4 <__riscv_save_6>
	if(then != 0)  {
    80001814:	0ffff797          	auipc	a5,0xffff
    80001818:	e1c78793          	addi	a5,a5,-484 # 90000630 <then.3516>
    8000181c:	6398                	ld	a4,0(a5)
	sp[31]=mepc;
    8000181e:	de6c                	sw	a1,124(a2)
{
    80001820:	1141                	addi	sp,sp,-16
    80001822:	8932                	mv	s2,a2
	if(then != 0)  {
    80001824:	12070763          	beqz	a4,80001952 <timer_irq_handler+0x142>
		then = now + (RTC_CLOCK_HZ /TICK_RATE_HZ);
    80001828:	0a370713          	addi	a4,a4,163 # 4000a3 <soc_func.c.4d39cff4+0x3ec4b6>
    8000182c:	e398                	sd	a4,0(a5)
	*mtimecmp = then;
    8000182e:	6398                	ld	a4,0(a5)
    80001830:	020007b7          	lui	a5,0x2000
    if (OSRunning == OS_TRUE) {
    80001834:	0ffff497          	auipc	s1,0xffff
    80001838:	dac48493          	addi	s1,s1,-596 # 900005e0 <OSRunning>
    8000183c:	e798                	sd	a4,8(a5)
    8000183e:	0004c703          	lbu	a4,0(s1)
    80001842:	4785                	li	a5,1
    80001844:	00f71f63          	bne	a4,a5,80001862 <timer_irq_handler+0x52>
        if (OSIntNesting < 255u) {
    80001848:	0ffff717          	auipc	a4,0xffff
    8000184c:	d8470713          	addi	a4,a4,-636 # 900005cc <OSIntNesting>
    80001850:	00074783          	lbu	a5,0(a4)
    80001854:	0ff00693          	li	a3,255
    80001858:	00d78563          	beq	a5,a3,80001862 <timer_irq_handler+0x52>
            OSIntNesting++;                      /* Increment ISR nesting level                        */
    8000185c:	2785                	addiw	a5,a5,1
    8000185e:	00f70023          	sb	a5,0(a4)
#if OS_APP_HOOKS_EN > 0
    App_TimeTickHook();
#endif

#if OS_TMR_EN > 0
    OSTmrCtr++;
    80001862:	0ffff717          	auipc	a4,0xffff
    80001866:	dae70713          	addi	a4,a4,-594 # 90000610 <OSTmrCtr>
    8000186a:	00075783          	lhu	a5,0(a4)
    if (OSTmrCtr >= (OS_TICKS_PER_SEC / OS_TMR_CFG_TICKS_PER_SEC)) {
    8000186e:	46a5                	li	a3,9
    OSTmrCtr++;
    80001870:	2785                	addiw	a5,a5,1
    80001872:	17c2                	slli	a5,a5,0x30
    80001874:	93c1                	srli	a5,a5,0x30
    if (OSTmrCtr >= (OS_TICKS_PER_SEC / OS_TMR_CFG_TICKS_PER_SEC)) {
    80001876:	0ef6e263          	bltu	a3,a5,8000195a <timer_irq_handler+0x14a>
    OSTmrCtr++;
    8000187a:	00f71023          	sh	a5,0(a4)
    OS_ENTER_CRITICAL();                                   /* Update the 32-bit tick counter               */
    8000187e:	f83fe0ef          	jal	ra,80000800 <OS_CPU_SR_Save>
    OSTime++;
    80001882:	0ffff797          	auipc	a5,0xffff
    80001886:	d8a7a783          	lw	a5,-630(a5) # 9000060c <OSTime>
    8000188a:	2785                	addiw	a5,a5,1
    8000188c:	0ffff717          	auipc	a4,0xffff
    80001890:	d8f72023          	sw	a5,-640(a4) # 9000060c <OSTime>
    OS_EXIT_CRITICAL();
    80001894:	f77fe0ef          	jal	ra,8000080a <OS_CPU_SR_Restore>
    if (OSRunning == OS_TRUE) {
    80001898:	0004c783          	lbu	a5,0(s1)
    8000189c:	4705                	li	a4,1
    8000189e:	04e79263          	bne	a5,a4,800018e2 <timer_irq_handler+0xd2>
        switch (OSTickStepState) {                         /* Determine whether we need to process a tick  */
    800018a2:	0ffff697          	auipc	a3,0xffff
    800018a6:	d6768693          	addi	a3,a3,-665 # 90000609 <OSTickStepState>
    800018aa:	0006c703          	lbu	a4,0(a3)
    800018ae:	02f70a63          	beq	a4,a5,800018e2 <timer_irq_handler+0xd2>
    800018b2:	4609                	li	a2,2
    800018b4:	1cc70763          	beq	a4,a2,80001a82 <timer_irq_handler+0x272>
    800018b8:	1c071863          	bnez	a4,80001a88 <timer_irq_handler+0x278>
        ptcb = OSTCBList;                                  /* Point at first TCB in TCB list               */
    800018bc:	0ffff417          	auipc	s0,0xffff
    800018c0:	d4443403          	ld	s0,-700(s0) # 90000600 <OSTCBList>
        while (ptcb->OSTCBPrio != OS_TASK_IDLE_PRIO) {     /* Go through all TCBs in TCB list              */
    800018c4:	03f00a13          	li	s4,63
                        OSRdyGrp               |= ptcb->OSTCBBitY;             /* No,  Make ready          */
    800018c8:	0ffff997          	auipc	s3,0xffff
    800018cc:	d0898993          	addi	s3,s3,-760 # 900005d0 <OSRdyGrp>
                        OSRdyTbl[ptcb->OSTCBY] |= ptcb->OSTCBBitX;
    800018d0:	0ffffa97          	auipc	s5,0xffff
    800018d4:	d08a8a93          	addi	s5,s5,-760 # 900005d8 <OSRdyTbl>
                        ptcb->OSTCBStatPend = OS_STAT_PEND_TO;                 /* Indicate PEND timeout    */
    800018d8:	4b05                	li	s6,1
        while (ptcb->OSTCBPrio != OS_TASK_IDLE_PRIO) {     /* Go through all TCBs in TCB list              */
    800018da:	05a44783          	lbu	a5,90(s0)
    800018de:	1b479a63          	bne	a5,s4,80001a92 <timer_irq_handler+0x282>
    if (OSRunning == OS_TRUE) {
    800018e2:	0004c703          	lbu	a4,0(s1)
    800018e6:	4785                	li	a5,1
    800018e8:	20f71d63          	bne	a4,a5,80001b02 <timer_irq_handler+0x2f2>
        OS_ENTER_CRITICAL();
    800018ec:	f15fe0ef          	jal	ra,80000800 <OS_CPU_SR_Save>
        if (OSIntNesting > 0u) {                           /* Prevent OSIntNesting from wrapping       */
    800018f0:	0ffff717          	auipc	a4,0xffff
    800018f4:	cdc70713          	addi	a4,a4,-804 # 900005cc <OSIntNesting>
    800018f8:	00074783          	lbu	a5,0(a4)
    800018fc:	1e079a63          	bnez	a5,80001af0 <timer_irq_handler+0x2e0>
            if (OSLockNesting == 0u) {                     /* ... and not locked.                      */
    80001900:	0ffff797          	auipc	a5,0xffff
    80001904:	ccd7c783          	lbu	a5,-819(a5) # 900005cd <OSLockNesting>
    80001908:	1e079b63          	bnez	a5,80001afe <timer_irq_handler+0x2ee>
    8000190c:	e42a                	sd	a0,8(sp)
                OS_SchedNew();
    8000190e:	ab8ff0ef          	jal	ra,80000bc6 <OS_SchedNew>
                OSTCBHighRdy = OSTCBPrioTbl[OSPrioHighRdy];
    80001912:	0ffff717          	auipc	a4,0xffff
    80001916:	cbd74703          	lbu	a4,-835(a4) # 900005cf <OSPrioHighRdy>
    8000191a:	00371693          	slli	a3,a4,0x3
    8000191e:	c7018793          	addi	a5,gp,-912 # 90000a10 <OSTCBPrioTbl>
    80001922:	97b6                	add	a5,a5,a3
    80001924:	639c                	ld	a5,0(a5)
                if (OSPrioHighRdy != OSPrioCur) {          /* No Ctx Sw if current task is highest rdy */
    80001926:	6522                	ld	a0,8(sp)
                OSTCBHighRdy = OSTCBPrioTbl[OSPrioHighRdy];
    80001928:	0ffff697          	auipc	a3,0xffff
    8000192c:	ccf6b823          	sd	a5,-816(a3) # 900005f8 <OSTCBHighRdy>
                if (OSPrioHighRdy != OSPrioCur) {          /* No Ctx Sw if current task is highest rdy */
    80001930:	0ffff697          	auipc	a3,0xffff
    80001934:	c9e6c683          	lbu	a3,-866(a3) # 900005ce <OSPrioCur>
    80001938:	1ce68363          	beq	a3,a4,80001afe <timer_irq_handler+0x2ee>
                    OSTCBHighRdy->OSTCBCtxSwCtr++;         /* Inc. # of context switches to this task  */
    8000193c:	53b8                	lw	a4,96(a5)
    8000193e:	2705                	addiw	a4,a4,1
    80001940:	d3b8                	sw	a4,96(a5)
                    OSCtxSwCtr++;                          /* Keep track of the number of ctx switches */
    80001942:	0ffff717          	auipc	a4,0xffff
    80001946:	c6e70713          	addi	a4,a4,-914 # 900005b0 <__bss_start>
    8000194a:	431c                	lw	a5,0(a4)
    8000194c:	2785                	addiw	a5,a5,1
    8000194e:	c31c                	sw	a5,0(a4)
    80001950:	a27d                	j	80001afe <timer_irq_handler+0x2ee>
		uint64_t now = *mtime;
    80001952:	02000737          	lui	a4,0x2000
    80001956:	6318                	ld	a4,0(a4)
    80001958:	bdc1                	j	80001828 <timer_irq_handler+0x18>
    err = OSSemPost(OSTmrSemSignal);
    8000195a:	0ffff417          	auipc	s0,0xffff
    8000195e:	cc643403          	ld	s0,-826(s0) # 90000620 <OSTmrSemSignal>
#if OS_ARG_CHK_EN > 0u
    if (pevent == (OS_EVENT *)0) {                    /* Validate 'pevent'                             */
        return (OS_ERR_PEVENT_NULL);
    }
#endif
    if (pevent->OSEventType != OS_EVENT_TYPE_SEM) {   /* Validate event block type                     */
    80001962:	00044703          	lbu	a4,0(s0)
        OSTmrCtr = 0;
    80001966:	0ffff797          	auipc	a5,0xffff
    8000196a:	ca079523          	sh	zero,-854(a5) # 90000610 <OSTmrCtr>
    8000196e:	478d                	li	a5,3
    80001970:	f0f717e3          	bne	a4,a5,8000187e <timer_irq_handler+0x6e>
        return (OS_ERR_EVENT_TYPE);
    }
    OS_ENTER_CRITICAL();
    80001974:	e8dfe0ef          	jal	ra,80000800 <OS_CPU_SR_Save>
    if (pevent->OSEventGrp != 0u) {                   /* See if any task waiting for semaphore         */
    80001978:	01244683          	lbu	a3,18(s0)
    OS_ENTER_CRITICAL();
    8000197c:	882a                	mv	a6,a0
    if (pevent->OSEventGrp != 0u) {                   /* See if any task waiting for semaphore         */
    8000197e:	c6f5                	beqz	a3,80001a6a <timer_irq_handler+0x25a>
    y    = OSUnMapTbl[pevent->OSEventGrp];              /* Find HPT waiting for message                */
    80001980:	0ffff717          	auipc	a4,0xffff
    80001984:	92870713          	addi	a4,a4,-1752 # 900002a8 <OSUnMapTbl>
    80001988:	00d707b3          	add	a5,a4,a3
    8000198c:	0007c783          	lbu	a5,0(a5)
    x    = OSUnMapTbl[pevent->OSEventTbl[y]];
    80001990:	00f40633          	add	a2,s0,a5
    80001994:	01364603          	lbu	a2,19(a2)
    80001998:	0007889b          	sext.w	a7,a5
    prio = (INT8U)((y << 3u) + x);                      /* Find priority of task getting the msg       */
    8000199c:	0037979b          	slliw	a5,a5,0x3
    x    = OSUnMapTbl[pevent->OSEventTbl[y]];
    800019a0:	9732                	add	a4,a4,a2
    prio = (INT8U)((y << 3u) + x);                      /* Find priority of task getting the msg       */
    800019a2:	00074703          	lbu	a4,0(a4)
    800019a6:	9fb9                	addw	a5,a5,a4
    ptcb                  =  OSTCBPrioTbl[prio];        /* Point to this task's OS_TCB                 */
    800019a8:	0ff7f793          	andi	a5,a5,255
    800019ac:	c7018713          	addi	a4,gp,-912 # 90000a10 <OSTCBPrioTbl>
    800019b0:	078e                	slli	a5,a5,0x3
    800019b2:	97ba                	add	a5,a5,a4
    800019b4:	639c                	ld	a5,0(a5)
    ptcb->OSTCBStat      &= (INT8U)~msk;                /* Clear bit associated with event type        */
    800019b6:	0587c583          	lbu	a1,88(a5)
    ptcb->OSTCBDly        =  0u;                        /* Prevent OSTimeTick() from readying task     */
    800019ba:	0407aa23          	sw	zero,84(a5)
    ptcb->OSTCBMsg        =  pmsg;                      /* Send message directly to waiting task       */
    800019be:	0407b023          	sd	zero,64(a5)
    ptcb->OSTCBStat      &= (INT8U)~msk;                /* Clear bit associated with event type        */
    800019c2:	ffe5f713          	andi	a4,a1,-2
    800019c6:	04e78c23          	sb	a4,88(a5)
    ptcb->OSTCBStatPend   =  pend_stat;                 /* Set pend status of post or abort            */
    800019ca:	04078ca3          	sb	zero,89(a5)
    if ((ptcb->OSTCBStat &   OS_STAT_SUSPEND) == OS_STAT_RDY) {
    800019ce:	89a1                	andi	a1,a1,8
    800019d0:	05d7c703          	lbu	a4,93(a5)
    800019d4:	e595                	bnez	a1,80001a00 <timer_irq_handler+0x1f0>
        OSRdyGrp         |=  ptcb->OSTCBBitY;           /* Put task in the ready to run list           */
    800019d6:	0ffff517          	auipc	a0,0xffff
    800019da:	bfa50513          	addi	a0,a0,-1030 # 900005d0 <OSRdyGrp>
    800019de:	00054603          	lbu	a2,0(a0)
    800019e2:	05e7c583          	lbu	a1,94(a5)
    800019e6:	8dd1                	or	a1,a1,a2
        OSRdyTbl[y]      |=  ptcb->OSTCBBitX;
    800019e8:	0ffff617          	auipc	a2,0xffff
    800019ec:	bf060613          	addi	a2,a2,-1040 # 900005d8 <OSRdyTbl>
    800019f0:	9646                	add	a2,a2,a7
        OSRdyGrp         |=  ptcb->OSTCBBitY;           /* Put task in the ready to run list           */
    800019f2:	00b50023          	sb	a1,0(a0)
        OSRdyTbl[y]      |=  ptcb->OSTCBBitX;
    800019f6:	00064583          	lbu	a1,0(a2)
    800019fa:	8dd9                	or	a1,a1,a4
    800019fc:	00b60023          	sb	a1,0(a2)
    pevent->OSEventTbl[y]  &= (OS_PRIO)~ptcb->OSTCBBitX;    /* Remove task from wait list              */
    80001a00:	05c7c503          	lbu	a0,92(a5)
    80001a04:	fff74713          	not	a4,a4
    80001a08:	0ff77313          	andi	t1,a4,255
    80001a0c:	00a40633          	add	a2,s0,a0
    80001a10:	01364583          	lbu	a1,19(a2)
    80001a14:	8f6d                	and	a4,a4,a1
    80001a16:	00e609a3          	sb	a4,19(a2)
    if (pevent->OSEventTbl[y] == 0u) {
    80001a1a:	eb01                	bnez	a4,80001a2a <timer_irq_handler+0x21a>
        pevent->OSEventGrp &= (OS_PRIO)~ptcb->OSTCBBitY;
    80001a1c:	05e7c703          	lbu	a4,94(a5)
    80001a20:	fff74713          	not	a4,a4
    80001a24:	8ef9                	and	a3,a3,a4
    80001a26:	00d40923          	sb	a3,18(s0)
    if (ptcb->OSTCBEventMultiPtr != (OS_EVENT **)0) {   /* Remove this task from events' wait lists    */
    80001a2a:	7f94                	ld	a3,56(a5)
    80001a2c:	ca81                	beqz	a3,80001a3c <timer_irq_handler+0x22c>
    bity    =  ptcb->OSTCBBitY;
    80001a2e:	05e7c583          	lbu	a1,94(a5)
    pevent  = *pevents;
    80001a32:	6298                	ld	a4,0(a3)
            pevent->OSEventGrp &= (OS_PRIO)~bity;
    80001a34:	fff5c593          	not	a1,a1
    while (pevent != (OS_EVENT *)0) {                   /* Remove task from all events' wait lists     */
    80001a38:	eb01                	bnez	a4,80001a48 <timer_irq_handler+0x238>
        ptcb->OSTCBEventPtr       = (OS_EVENT  *)pevent;/* Return event as first multi-pend event ready*/
    80001a3a:	fb80                	sd	s0,48(a5)
                                                      /* Ready HPT waiting on event                    */
        (void)OS_EventTaskRdy(pevent, (void *)0, OS_STAT_SEM, OS_STAT_PEND_OK);
        OS_EXIT_CRITICAL();
    80001a3c:	8542                	mv	a0,a6
    80001a3e:	dcdfe0ef          	jal	ra,8000080a <OS_CPU_SR_Restore>
        OS_Sched();                                   /* Find HPT ready to run                         */
    80001a42:	c14ff0ef          	jal	ra,80000e56 <OS_Sched>
        return (OS_ERR_NONE);
    80001a46:	bd25                	j	8000187e <timer_irq_handler+0x6e>
        pevent->OSEventTbl[y]  &= (OS_PRIO)~bitx;
    80001a48:	00a708b3          	add	a7,a4,a0
    80001a4c:	0138c603          	lbu	a2,19(a7)
    80001a50:	00c37633          	and	a2,t1,a2
    80001a54:	00c889a3          	sb	a2,19(a7)
        if (pevent->OSEventTbl[y] == 0u) {
    80001a58:	e611                	bnez	a2,80001a64 <timer_irq_handler+0x254>
            pevent->OSEventGrp &= (OS_PRIO)~bity;
    80001a5a:	01274603          	lbu	a2,18(a4)
    80001a5e:	8e6d                	and	a2,a2,a1
    80001a60:	00c70923          	sb	a2,18(a4)
        pevents++;
    80001a64:	06a1                	addi	a3,a3,8
        pevent = *pevents;
    80001a66:	6298                	ld	a4,0(a3)
    80001a68:	bfc1                	j	80001a38 <timer_irq_handler+0x228>
    }
    if (pevent->OSEventCnt < 65535u) {                /* Make sure semaphore will not overflow         */
    80001a6a:	01045783          	lhu	a5,16(s0)
    80001a6e:	6741                	lui	a4,0x10
    80001a70:	177d                	addi	a4,a4,-1
    80001a72:	00e78563          	beq	a5,a4,80001a7c <timer_irq_handler+0x26c>
        pevent->OSEventCnt++;                         /* Increment semaphore count to register event   */
    80001a76:	2785                	addiw	a5,a5,1
    80001a78:	00f41823          	sh	a5,16(s0)
        OS_EXIT_CRITICAL();
        return (OS_ERR_NONE);
    }
    OS_EXIT_CRITICAL();                               /* Semaphore value has reached its maximum       */
    80001a7c:	d8ffe0ef          	jal	ra,8000080a <OS_CPU_SR_Restore>
    return (OS_ERR_SEM_OVF);
    80001a80:	bbfd                	j	8000187e <timer_irq_handler+0x6e>
                 OSTickStepState = OS_TICK_STEP_WAIT;
    80001a82:	00f68023          	sb	a5,0(a3)
        if (step == OS_FALSE) {                            /* Return if waiting for step command           */
    80001a86:	bd1d                	j	800018bc <timer_irq_handler+0xac>
                 OSTickStepState = OS_TICK_STEP_DIS;
    80001a88:	0ffff797          	auipc	a5,0xffff
    80001a8c:	b80780a3          	sb	zero,-1151(a5) # 90000609 <OSTickStepState>
        if (step == OS_FALSE) {                            /* Return if waiting for step command           */
    80001a90:	b535                	j	800018bc <timer_irq_handler+0xac>
            OS_ENTER_CRITICAL();
    80001a92:	d6ffe0ef          	jal	ra,80000800 <OS_CPU_SR_Save>
            if (ptcb->OSTCBDly != 0u) {                    /* No, Delayed or waiting for event with TO     */
    80001a96:	487c                	lw	a5,84(s0)
    80001a98:	c7a9                	beqz	a5,80001ae2 <timer_irq_handler+0x2d2>
                ptcb->OSTCBDly--;                          /* Decrement nbr of ticks to end of delay       */
    80001a9a:	fff7871b          	addiw	a4,a5,-1
    80001a9e:	c878                	sw	a4,84(s0)
                if (ptcb->OSTCBDly == 0u) {                /* Check for timeout                            */
    80001aa0:	e329                	bnez	a4,80001ae2 <timer_irq_handler+0x2d2>
                    if ((ptcb->OSTCBStat & OS_STAT_PEND_ANY) != OS_STAT_RDY) {
    80001aa2:	05844783          	lbu	a5,88(s0)
    80001aa6:	0377f713          	andi	a4,a5,55
    80001aaa:	c321                	beqz	a4,80001aea <timer_irq_handler+0x2da>
                        ptcb->OSTCBStat  &= (INT8U)~(INT8U)OS_STAT_PEND_ANY;          /* Yes, Clear status flag   */
    80001aac:	fc87f793          	andi	a5,a5,-56
    80001ab0:	04f40c23          	sb	a5,88(s0)
                        ptcb->OSTCBStatPend = OS_STAT_PEND_TO;                 /* Indicate PEND timeout    */
    80001ab4:	05640ca3          	sb	s6,89(s0)
                    if ((ptcb->OSTCBStat & OS_STAT_SUSPEND) == OS_STAT_RDY) {  /* Is task suspended?       */
    80001ab8:	05844783          	lbu	a5,88(s0)
    80001abc:	8ba1                	andi	a5,a5,8
    80001abe:	e395                	bnez	a5,80001ae2 <timer_irq_handler+0x2d2>
                        OSRdyGrp               |= ptcb->OSTCBBitY;             /* No,  Make ready          */
    80001ac0:	0009c703          	lbu	a4,0(s3)
    80001ac4:	05e44783          	lbu	a5,94(s0)
                        OSRdyTbl[ptcb->OSTCBY] |= ptcb->OSTCBBitX;
    80001ac8:	05d44683          	lbu	a3,93(s0)
                        OSRdyGrp               |= ptcb->OSTCBBitY;             /* No,  Make ready          */
    80001acc:	8fd9                	or	a5,a5,a4
    80001ace:	00f98023          	sb	a5,0(s3)
                        OSRdyTbl[ptcb->OSTCBY] |= ptcb->OSTCBBitX;
    80001ad2:	05c44783          	lbu	a5,92(s0)
    80001ad6:	97d6                	add	a5,a5,s5
    80001ad8:	0007c703          	lbu	a4,0(a5)
    80001adc:	8f55                	or	a4,a4,a3
    80001ade:	00e78023          	sb	a4,0(a5)
            ptcb = ptcb->OSTCBNext;                        /* Point at next TCB in TCB list                */
    80001ae2:	7000                	ld	s0,32(s0)
            OS_EXIT_CRITICAL();
    80001ae4:	d27fe0ef          	jal	ra,8000080a <OS_CPU_SR_Restore>
    80001ae8:	bbcd                	j	800018da <timer_irq_handler+0xca>
                        ptcb->OSTCBStatPend = OS_STAT_PEND_OK;
    80001aea:	04040ca3          	sb	zero,89(s0)
    80001aee:	b7e9                	j	80001ab8 <timer_irq_handler+0x2a8>
            OSIntNesting--;
    80001af0:	37fd                	addiw	a5,a5,-1
    80001af2:	0ff7f793          	andi	a5,a5,255
    80001af6:	00f70023          	sb	a5,0(a4) # 10000 <main.c.38901d02+0x474>
        if (OSIntNesting == 0u) {                          /* Reschedule only if all ISRs complete ... */
    80001afa:	e00783e3          	beqz	a5,80001900 <timer_irq_handler+0xf0>
        OS_EXIT_CRITICAL();
    80001afe:	d0dfe0ef          	jal	ra,8000080a <OS_CPU_SR_Restore>
	task_switch(sp);
    80001b02:	854a                	mv	a0,s2
    80001b04:	e6bfe0ef          	jal	ra,8000096e <task_switch>
}
    80001b08:	0141                	addi	sp,sp,16
    80001b0a:	70e0106f          	j	80003218 <__riscv_restore_6>

0000000080001b0e <TickSetup>:
    uint64_t now = *mtime;
    80001b0e:	02000737          	lui	a4,0x2000
    80001b12:	631c                	ld	a5,0(a4)
    uint64_t then = now + (RTC_CLOCK_HZ / TICK_RATE_HZ);
    80001b14:	0a378793          	addi	a5,a5,163
    *mtimecmp = then;
    80001b18:	e71c                	sd	a5,8(a4)
  return *(volatile uint8_t*)(ECLIC_ADDR_BASE+ECLIC_INT_ATTR_OFFSET+source*4);
    80001b1a:	0c0017b7          	lui	a5,0xc001
    80001b1e:	01e7c703          	lbu	a4,30(a5) # c00101e <soc_func.c.4d39cff4+0xbfed431>
    mtime_intattr|=ECLIC_INT_ATTR_SHV;
    80001b22:	00176713          	ori	a4,a4,1
  *(volatile uint8_t*)(ECLIC_ADDR_BASE+ECLIC_INT_ATTR_OFFSET+source*4) = intattr;
    80001b26:	00e78f23          	sb	a4,30(a5)
    *(volatile uint8_t*)(ECLIC_ADDR_BASE+ECLIC_INT_IE_OFFSET+source*4) = 1;
    80001b2a:	4705                	li	a4,1
    80001b2c:	00e78ea3          	sb	a4,29(a5)
  return *(volatile uint8_t*)(ECLIC_ADDR_BASE+ECLIC_CFG_OFFSET);
    80001b30:	0c000737          	lui	a4,0xc000
    80001b34:	00074703          	lbu	a4,0(a4) # c000000 <soc_func.c.4d39cff4+0xbfec413>
  return *(volatile uint8_t*)(ECLIC_ADDR_BASE+ECLIC_INT_CTRL_OFFSET+source*4);
    80001b38:	01f7c703          	lbu	a4,31(a5)
  current_intctrl = current_intctrl >> nlbits;
    80001b3c:	8b7d                	andi	a4,a4,31
  eclic_set_intctrl(source, (current_intctrl | lvl));
    80001b3e:	02076713          	ori	a4,a4,32
  *(volatile uint8_t*)(ECLIC_ADDR_BASE+ECLIC_INT_CTRL_OFFSET+source*4) = intctrl;
    80001b42:	00e78fa3          	sb	a4,31(a5)
	OSIntNesting = 0;
    80001b46:	0ffff797          	auipc	a5,0xffff
    80001b4a:	a8078323          	sb	zero,-1402(a5) # 900005cc <OSIntNesting>
}
    80001b4e:	8082                	ret

0000000080001b50 <scheduler_ecall>:
		portYIELD();
    80001b50:	02800693          	li	a3,40
    80001b54:	00000073          	ecall
}
    80001b58:	8082                	ret

0000000080001b5a <trap_handler>:
{
    80001b5a:	692012ef          	jal	t0,800031ec <__riscv_save_2>
		switch(mcause&0X00000fff)
    80001b5e:	03451493          	slli	s1,a0,0x34
    80001b62:	90d1                	srli	s1,s1,0x34
    80001b64:	47ad                	li	a5,11
{
    80001b66:	842a                	mv	s0,a0
		switch(mcause&0X00000fff)
    80001b68:	04f48463          	beq	s1,a5,80001bb0 <trap_handler+0x56>
				write(1, "trap\n", 5);
    80001b6c:	4615                	li	a2,5
    80001b6e:	0fffe597          	auipc	a1,0xfffe
    80001b72:	51a58593          	addi	a1,a1,1306 # 90000088 <_data+0x88>
    80001b76:	4505                	li	a0,1
    80001b78:	12e000ef          	jal	ra,80001ca6 <write>
			  printf("In trap handler, the mcause is %d\n",(mcause&0X00000fff) );
    80001b7c:	85a6                	mv	a1,s1
    80001b7e:	0fffe517          	auipc	a0,0xfffe
    80001b82:	6b250513          	addi	a0,a0,1714 # 90000230 <_data+0x230>
    80001b86:	480000ef          	jal	ra,80002006 <iprintf>
       printf("In trap handler, the mepc is 0x%x\n", read_csr(mepc));
    80001b8a:	341025f3          	csrr	a1,mepc
    80001b8e:	0fffe517          	auipc	a0,0xfffe
    80001b92:	6ca50513          	addi	a0,a0,1738 # 90000258 <_data+0x258>
    80001b96:	470000ef          	jal	ra,80002006 <iprintf>
       printf("In trap handler, the mtval is 0x%x\n", read_csr(mbadaddr));
    80001b9a:	343025f3          	csrr	a1,mtval
    80001b9e:	0fffe517          	auipc	a0,0xfffe
    80001ba2:	6e250513          	addi	a0,a0,1762 # 90000280 <_data+0x280>
    80001ba6:	460000ef          	jal	ra,80002006 <iprintf>
			  _exit(mcause);
    80001baa:	8522                	mv	a0,s0
    80001bac:	5ca010ef          	jal	ra,80003176 <_exit>
				 	sp[31]=mepc+4;
    80001bb0:	0045841b          	addiw	s0,a1,4
    80001bb4:	8532                	mv	a0,a2
    80001bb6:	de60                	sw	s0,124(a2)
	task_switch(sp);
    80001bb8:	db7fe0ef          	jal	ra,8000096e <task_switch>
}
    80001bbc:	8522                	mv	a0,s0
    80001bbe:	6660106f          	j	80003224 <__riscv_restore_2>

0000000080001bc2 <atexit>:
    80001bc2:	85aa                	mv	a1,a0
    80001bc4:	4681                	li	a3,0
    80001bc6:	4601                	li	a2,0
    80001bc8:	4501                	li	a0,0
    80001bca:	1220006f          	j	80001cec <__register_exitproc>

0000000080001bce <exit>:
    80001bce:	1141                	addi	sp,sp,-16
    80001bd0:	e022                	sd	s0,0(sp)
    80001bd2:	e406                	sd	ra,8(sp)
    80001bd4:	00000797          	auipc	a5,0x0
    80001bd8:	19a78793          	addi	a5,a5,410 # 80001d6e <__call_exitprocs>
    80001bdc:	842a                	mv	s0,a0
    80001bde:	c781                	beqz	a5,80001be6 <exit+0x18>
    80001be0:	4581                	li	a1,0
    80001be2:	18c000ef          	jal	ra,80001d6e <__call_exitprocs>
    80001be6:	0ffff517          	auipc	a0,0xffff
    80001bea:	9c253503          	ld	a0,-1598(a0) # 900005a8 <_global_impure_ptr>
    80001bee:	653c                	ld	a5,72(a0)
    80001bf0:	c391                	beqz	a5,80001bf4 <exit+0x26>
    80001bf2:	9782                	jalr	a5
    80001bf4:	8522                	mv	a0,s0
    80001bf6:	580010ef          	jal	ra,80003176 <_exit>

0000000080001bfa <__libc_fini_array>:
    80001bfa:	1101                	addi	sp,sp,-32
    80001bfc:	00001797          	auipc	a5,0x1
    80001c00:	63678793          	addi	a5,a5,1590 # 80003232 <__fini_array_end>
    80001c04:	e822                	sd	s0,16(sp)
    80001c06:	00001417          	auipc	s0,0x1
    80001c0a:	62c40413          	addi	s0,s0,1580 # 80003232 <__fini_array_end>
    80001c0e:	8c1d                	sub	s0,s0,a5
    80001c10:	e426                	sd	s1,8(sp)
    80001c12:	ec06                	sd	ra,24(sp)
    80001c14:	840d                	srai	s0,s0,0x3
    80001c16:	84be                	mv	s1,a5
    80001c18:	e419                	bnez	s0,80001c26 <__libc_fini_array+0x2c>
    80001c1a:	6442                	ld	s0,16(sp)
    80001c1c:	60e2                	ld	ra,24(sp)
    80001c1e:	64a2                	ld	s1,8(sp)
    80001c20:	6105                	addi	sp,sp,32
    80001c22:	a67ff06f          	j	80001688 <_fini>
    80001c26:	147d                	addi	s0,s0,-1
    80001c28:	00341793          	slli	a5,s0,0x3
    80001c2c:	97a6                	add	a5,a5,s1
    80001c2e:	639c                	ld	a5,0(a5)
    80001c30:	9782                	jalr	a5
    80001c32:	b7dd                	j	80001c18 <__libc_fini_array+0x1e>

0000000080001c34 <__libc_init_array>:
    80001c34:	1101                	addi	sp,sp,-32
    80001c36:	00001797          	auipc	a5,0x1
    80001c3a:	5fc78793          	addi	a5,a5,1532 # 80003232 <__fini_array_end>
    80001c3e:	e822                	sd	s0,16(sp)
    80001c40:	00001417          	auipc	s0,0x1
    80001c44:	5f240413          	addi	s0,s0,1522 # 80003232 <__fini_array_end>
    80001c48:	8c1d                	sub	s0,s0,a5
    80001c4a:	e426                	sd	s1,8(sp)
    80001c4c:	e04a                	sd	s2,0(sp)
    80001c4e:	ec06                	sd	ra,24(sp)
    80001c50:	840d                	srai	s0,s0,0x3
    80001c52:	4481                	li	s1,0
    80001c54:	893e                	mv	s2,a5
    80001c56:	02849863          	bne	s1,s0,80001c86 <__libc_init_array+0x52>
    80001c5a:	a31ff0ef          	jal	ra,8000168a <_init>
    80001c5e:	00001797          	auipc	a5,0x1
    80001c62:	5d478793          	addi	a5,a5,1492 # 80003232 <__fini_array_end>
    80001c66:	00001417          	auipc	s0,0x1
    80001c6a:	5cc40413          	addi	s0,s0,1484 # 80003232 <__fini_array_end>
    80001c6e:	8c1d                	sub	s0,s0,a5
    80001c70:	840d                	srai	s0,s0,0x3
    80001c72:	4481                	li	s1,0
    80001c74:	893e                	mv	s2,a5
    80001c76:	00849f63          	bne	s1,s0,80001c94 <__libc_init_array+0x60>
    80001c7a:	60e2                	ld	ra,24(sp)
    80001c7c:	6442                	ld	s0,16(sp)
    80001c7e:	64a2                	ld	s1,8(sp)
    80001c80:	6902                	ld	s2,0(sp)
    80001c82:	6105                	addi	sp,sp,32
    80001c84:	8082                	ret
    80001c86:	00349793          	slli	a5,s1,0x3
    80001c8a:	97ca                	add	a5,a5,s2
    80001c8c:	639c                	ld	a5,0(a5)
    80001c8e:	0485                	addi	s1,s1,1
    80001c90:	9782                	jalr	a5
    80001c92:	b7d1                	j	80001c56 <__libc_init_array+0x22>
    80001c94:	00349793          	slli	a5,s1,0x3
    80001c98:	97ca                	add	a5,a5,s2
    80001c9a:	639c                	ld	a5,0(a5)
    80001c9c:	0485                	addi	s1,s1,1
    80001c9e:	9782                	jalr	a5
    80001ca0:	bfd9                	j	80001c76 <__libc_init_array+0x42>

0000000080001ca2 <isatty>:
    80001ca2:	98dff06f          	j	8000162e <_isatty>

0000000080001ca6 <write>:
    80001ca6:	86b2                	mv	a3,a2
    80001ca8:	862e                	mv	a2,a1
    80001caa:	85aa                	mv	a1,a0
    80001cac:	0ffff517          	auipc	a0,0xffff
    80001cb0:	8f453503          	ld	a0,-1804(a0) # 900005a0 <_impure_ptr>
    80001cb4:	0040006f          	j	80001cb8 <_write_r>

0000000080001cb8 <_write_r>:
    80001cb8:	1141                	addi	sp,sp,-16
    80001cba:	e022                	sd	s0,0(sp)
    80001cbc:	842a                	mv	s0,a0
    80001cbe:	852e                	mv	a0,a1
    80001cc0:	85b2                	mv	a1,a2
    80001cc2:	8636                	mv	a2,a3
    80001cc4:	10009797          	auipc	a5,0x10009
    80001cc8:	dc07a223          	sw	zero,-572(a5) # 9000aa88 <errno>
    80001ccc:	e406                	sd	ra,8(sp)
    80001cce:	969ff0ef          	jal	ra,80001636 <_write>
    80001cd2:	57fd                	li	a5,-1
    80001cd4:	00f51863          	bne	a0,a5,80001ce4 <_write_r+0x2c>
    80001cd8:	10009797          	auipc	a5,0x10009
    80001cdc:	db07a783          	lw	a5,-592(a5) # 9000aa88 <errno>
    80001ce0:	c391                	beqz	a5,80001ce4 <_write_r+0x2c>
    80001ce2:	c01c                	sw	a5,0(s0)
    80001ce4:	60a2                	ld	ra,8(sp)
    80001ce6:	6402                	ld	s0,0(sp)
    80001ce8:	0141                	addi	sp,sp,16
    80001cea:	8082                	ret

0000000080001cec <__register_exitproc>:
    80001cec:	88aa                	mv	a7,a0
    80001cee:	0ffff517          	auipc	a0,0xffff
    80001cf2:	94a50513          	addi	a0,a0,-1718 # 90000638 <_global_atexit>
    80001cf6:	611c                	ld	a5,0(a0)
    80001cf8:	e385                	bnez	a5,80001d18 <__register_exitproc+0x2c>
    80001cfa:	10009717          	auipc	a4,0x10009
    80001cfe:	c7670713          	addi	a4,a4,-906 # 9000a970 <_global_atexit0>
    80001d02:	e118                	sd	a4,0(a0)
    80001d04:	00000537          	lui	a0,0x0
    80001d08:	00050513          	mv	a0,a0
    80001d0c:	87ba                	mv	a5,a4
    80001d0e:	c509                	beqz	a0,80001d18 <__register_exitproc+0x2c>
    80001d10:	611c                	ld	a5,0(a0)
    80001d12:	10f73823          	sd	a5,272(a4)
    80001d16:	87ba                	mv	a5,a4
    80001d18:	4798                	lw	a4,8(a5)
    80001d1a:	487d                	li	a6,31
    80001d1c:	557d                	li	a0,-1
    80001d1e:	04e84763          	blt	a6,a4,80001d6c <__register_exitproc+0x80>
    80001d22:	02088d63          	beqz	a7,80001d5c <__register_exitproc+0x70>
    80001d26:	1107b803          	ld	a6,272(a5)
    80001d2a:	04080163          	beqz	a6,80001d6c <__register_exitproc+0x80>
    80001d2e:	00371513          	slli	a0,a4,0x3
    80001d32:	9542                	add	a0,a0,a6
    80001d34:	e110                	sd	a2,0(a0)
    80001d36:	20082303          	lw	t1,512(a6)
    80001d3a:	4605                	li	a2,1
    80001d3c:	00e6163b          	sllw	a2,a2,a4
    80001d40:	00c36333          	or	t1,t1,a2
    80001d44:	20682023          	sw	t1,512(a6)
    80001d48:	10d53023          	sd	a3,256(a0) # 100 <RISCV_MIE_MSIE+0xf8>
    80001d4c:	4689                	li	a3,2
    80001d4e:	00d89763          	bne	a7,a3,80001d5c <__register_exitproc+0x70>
    80001d52:	20482683          	lw	a3,516(a6)
    80001d56:	8e55                	or	a2,a2,a3
    80001d58:	20c82223          	sw	a2,516(a6)
    80001d5c:	0017069b          	addiw	a3,a4,1
    80001d60:	0709                	addi	a4,a4,2
    80001d62:	070e                	slli	a4,a4,0x3
    80001d64:	c794                	sw	a3,8(a5)
    80001d66:	97ba                	add	a5,a5,a4
    80001d68:	e38c                	sd	a1,0(a5)
    80001d6a:	4501                	li	a0,0
    80001d6c:	8082                	ret

0000000080001d6e <__call_exitprocs>:
    80001d6e:	715d                	addi	sp,sp,-80
    80001d70:	f44e                	sd	s3,40(sp)
    80001d72:	f052                	sd	s4,32(sp)
    80001d74:	ec56                	sd	s5,24(sp)
    80001d76:	e85a                	sd	s6,16(sp)
    80001d78:	e486                	sd	ra,72(sp)
    80001d7a:	e0a2                	sd	s0,64(sp)
    80001d7c:	fc26                	sd	s1,56(sp)
    80001d7e:	f84a                	sd	s2,48(sp)
    80001d80:	e45e                	sd	s7,8(sp)
    80001d82:	8a2a                	mv	s4,a0
    80001d84:	89ae                	mv	s3,a1
    80001d86:	0ffffa97          	auipc	s5,0xffff
    80001d8a:	8b2a8a93          	addi	s5,s5,-1870 # 90000638 <_global_atexit>
    80001d8e:	4b05                	li	s6,1
    80001d90:	000ab403          	ld	s0,0(s5)
    80001d94:	c819                	beqz	s0,80001daa <__call_exitprocs+0x3c>
    80001d96:	4404                	lw	s1,8(s0)
    80001d98:	11043903          	ld	s2,272(s0)
    80001d9c:	34fd                	addiw	s1,s1,-1
    80001d9e:	02049713          	slli	a4,s1,0x20
    80001da2:	0004879b          	sext.w	a5,s1
    80001da6:	00075d63          	bgez	a4,80001dc0 <__call_exitprocs+0x52>
    80001daa:	60a6                	ld	ra,72(sp)
    80001dac:	6406                	ld	s0,64(sp)
    80001dae:	74e2                	ld	s1,56(sp)
    80001db0:	7942                	ld	s2,48(sp)
    80001db2:	79a2                	ld	s3,40(sp)
    80001db4:	7a02                	ld	s4,32(sp)
    80001db6:	6ae2                	ld	s5,24(sp)
    80001db8:	6b42                	ld	s6,16(sp)
    80001dba:	6ba2                	ld	s7,8(sp)
    80001dbc:	6161                	addi	sp,sp,80
    80001dbe:	8082                	ret
    80001dc0:	00098d63          	beqz	s3,80001dda <__call_exitprocs+0x6c>
    80001dc4:	00091463          	bnez	s2,80001dcc <__call_exitprocs+0x5e>
    80001dc8:	14fd                	addi	s1,s1,-1
    80001dca:	bfd1                	j	80001d9e <__call_exitprocs+0x30>
    80001dcc:	00349713          	slli	a4,s1,0x3
    80001dd0:	974a                	add	a4,a4,s2
    80001dd2:	10073703          	ld	a4,256(a4)
    80001dd6:	ff3719e3          	bne	a4,s3,80001dc8 <__call_exitprocs+0x5a>
    80001dda:	4418                	lw	a4,8(s0)
    80001ddc:	00349613          	slli	a2,s1,0x3
    80001de0:	00c405b3          	add	a1,s0,a2
    80001de4:	377d                	addiw	a4,a4,-1
    80001de6:	6994                	ld	a3,16(a1)
    80001de8:	02f71863          	bne	a4,a5,80001e18 <__call_exitprocs+0xaa>
    80001dec:	c41c                	sw	a5,8(s0)
    80001dee:	dee9                	beqz	a3,80001dc8 <__call_exitprocs+0x5a>
    80001df0:	00842b83          	lw	s7,8(s0)
    80001df4:	00090963          	beqz	s2,80001e06 <__call_exitprocs+0x98>
    80001df8:	20092703          	lw	a4,512(s2) # 200200 <soc_func.c.4d39cff4+0x1ec613>
    80001dfc:	00fb17bb          	sllw	a5,s6,a5
    80001e00:	8f7d                	and	a4,a4,a5
    80001e02:	2701                	sext.w	a4,a4
    80001e04:	ef09                	bnez	a4,80001e1e <__call_exitprocs+0xb0>
    80001e06:	9682                	jalr	a3
    80001e08:	4418                	lw	a4,8(s0)
    80001e0a:	000ab783          	ld	a5,0(s5)
    80001e0e:	f97711e3          	bne	a4,s7,80001d90 <__call_exitprocs+0x22>
    80001e12:	faf40be3          	beq	s0,a5,80001dc8 <__call_exitprocs+0x5a>
    80001e16:	bfad                	j	80001d90 <__call_exitprocs+0x22>
    80001e18:	0005b823          	sd	zero,16(a1)
    80001e1c:	bfc9                	j	80001dee <__call_exitprocs+0x80>
    80001e1e:	20492703          	lw	a4,516(s2)
    80001e22:	964a                	add	a2,a2,s2
    80001e24:	620c                	ld	a1,0(a2)
    80001e26:	8ff9                	and	a5,a5,a4
    80001e28:	2781                	sext.w	a5,a5
    80001e2a:	e781                	bnez	a5,80001e32 <__call_exitprocs+0xc4>
    80001e2c:	8552                	mv	a0,s4
    80001e2e:	9682                	jalr	a3
    80001e30:	bfe1                	j	80001e08 <__call_exitprocs+0x9a>
    80001e32:	852e                	mv	a0,a1
    80001e34:	9682                	jalr	a3
    80001e36:	bfc9                	j	80001e08 <__call_exitprocs+0x9a>

0000000080001e38 <_free_r>:
    80001e38:	c5c5                	beqz	a1,80001ee0 <_free_r+0xa8>
    80001e3a:	ff85b783          	ld	a5,-8(a1)
    80001e3e:	1101                	addi	sp,sp,-32
    80001e40:	e822                	sd	s0,16(sp)
    80001e42:	ec06                	sd	ra,24(sp)
    80001e44:	ff858413          	addi	s0,a1,-8
    80001e48:	0007d363          	bgez	a5,80001e4e <_free_r+0x16>
    80001e4c:	943e                	add	s0,s0,a5
    80001e4e:	e42a                	sd	a0,8(sp)
    80001e50:	1b2000ef          	jal	ra,80002002 <__malloc_lock>
    80001e54:	0fffe717          	auipc	a4,0xfffe
    80001e58:	7ec70713          	addi	a4,a4,2028 # 90000640 <__malloc_free_list>
    80001e5c:	631c                	ld	a5,0(a4)
    80001e5e:	6522                	ld	a0,8(sp)
    80001e60:	863a                	mv	a2,a4
    80001e62:	eb89                	bnez	a5,80001e74 <_free_r+0x3c>
    80001e64:	00043423          	sd	zero,8(s0)
    80001e68:	e300                	sd	s0,0(a4)
    80001e6a:	6442                	ld	s0,16(sp)
    80001e6c:	60e2                	ld	ra,24(sp)
    80001e6e:	6105                	addi	sp,sp,32
    80001e70:	1940006f          	j	80002004 <__malloc_unlock>
    80001e74:	00f47e63          	bgeu	s0,a5,80001e90 <_free_r+0x58>
    80001e78:	6014                	ld	a3,0(s0)
    80001e7a:	00d40733          	add	a4,s0,a3
    80001e7e:	00e79663          	bne	a5,a4,80001e8a <_free_r+0x52>
    80001e82:	6398                	ld	a4,0(a5)
    80001e84:	679c                	ld	a5,8(a5)
    80001e86:	9736                	add	a4,a4,a3
    80001e88:	e018                	sd	a4,0(s0)
    80001e8a:	e41c                	sd	a5,8(s0)
    80001e8c:	e200                	sd	s0,0(a2)
    80001e8e:	bff1                	j	80001e6a <_free_r+0x32>
    80001e90:	873e                	mv	a4,a5
    80001e92:	679c                	ld	a5,8(a5)
    80001e94:	c399                	beqz	a5,80001e9a <_free_r+0x62>
    80001e96:	fef47de3          	bgeu	s0,a5,80001e90 <_free_r+0x58>
    80001e9a:	6314                	ld	a3,0(a4)
    80001e9c:	00d70633          	add	a2,a4,a3
    80001ea0:	00861f63          	bne	a2,s0,80001ebe <_free_r+0x86>
    80001ea4:	6010                	ld	a2,0(s0)
    80001ea6:	96b2                	add	a3,a3,a2
    80001ea8:	e314                	sd	a3,0(a4)
    80001eaa:	00d70633          	add	a2,a4,a3
    80001eae:	fac79ee3          	bne	a5,a2,80001e6a <_free_r+0x32>
    80001eb2:	6390                	ld	a2,0(a5)
    80001eb4:	679c                	ld	a5,8(a5)
    80001eb6:	96b2                	add	a3,a3,a2
    80001eb8:	e314                	sd	a3,0(a4)
    80001eba:	e71c                	sd	a5,8(a4)
    80001ebc:	b77d                	j	80001e6a <_free_r+0x32>
    80001ebe:	00c47563          	bgeu	s0,a2,80001ec8 <_free_r+0x90>
    80001ec2:	47b1                	li	a5,12
    80001ec4:	c11c                	sw	a5,0(a0)
    80001ec6:	b755                	j	80001e6a <_free_r+0x32>
    80001ec8:	6010                	ld	a2,0(s0)
    80001eca:	00c406b3          	add	a3,s0,a2
    80001ece:	00d79663          	bne	a5,a3,80001eda <_free_r+0xa2>
    80001ed2:	6394                	ld	a3,0(a5)
    80001ed4:	679c                	ld	a5,8(a5)
    80001ed6:	96b2                	add	a3,a3,a2
    80001ed8:	e014                	sd	a3,0(s0)
    80001eda:	e41c                	sd	a5,8(s0)
    80001edc:	e700                	sd	s0,8(a4)
    80001ede:	b771                	j	80001e6a <_free_r+0x32>
    80001ee0:	8082                	ret

0000000080001ee2 <_malloc_r>:
    80001ee2:	00758793          	addi	a5,a1,7
    80001ee6:	7179                	addi	sp,sp,-48
    80001ee8:	9be1                	andi	a5,a5,-8
    80001eea:	ec26                	sd	s1,24(sp)
    80001eec:	e84a                	sd	s2,16(sp)
    80001eee:	f406                	sd	ra,40(sp)
    80001ef0:	f022                	sd	s0,32(sp)
    80001ef2:	e44e                	sd	s3,8(sp)
    80001ef4:	07a1                	addi	a5,a5,8
    80001ef6:	4741                	li	a4,16
    80001ef8:	84aa                	mv	s1,a0
    80001efa:	4941                	li	s2,16
    80001efc:	00e7e363          	bltu	a5,a4,80001f02 <_malloc_r+0x20>
    80001f00:	893e                	mv	s2,a5
    80001f02:	80000737          	lui	a4,0x80000
    80001f06:	fff74713          	not	a4,a4
    80001f0a:	00f76463          	bltu	a4,a5,80001f12 <_malloc_r+0x30>
    80001f0e:	00b97c63          	bgeu	s2,a1,80001f26 <_malloc_r+0x44>
    80001f12:	47b1                	li	a5,12
    80001f14:	c09c                	sw	a5,0(s1)
    80001f16:	4501                	li	a0,0
    80001f18:	70a2                	ld	ra,40(sp)
    80001f1a:	7402                	ld	s0,32(sp)
    80001f1c:	64e2                	ld	s1,24(sp)
    80001f1e:	6942                	ld	s2,16(sp)
    80001f20:	69a2                	ld	s3,8(sp)
    80001f22:	6145                	addi	sp,sp,48
    80001f24:	8082                	ret
    80001f26:	8526                	mv	a0,s1
    80001f28:	0da000ef          	jal	ra,80002002 <__malloc_lock>
    80001f2c:	0fffe797          	auipc	a5,0xfffe
    80001f30:	71478793          	addi	a5,a5,1812 # 90000640 <__malloc_free_list>
    80001f34:	6398                	ld	a4,0(a5)
    80001f36:	86be                	mv	a3,a5
    80001f38:	843a                	mv	s0,a4
    80001f3a:	e80d                	bnez	s0,80001f6c <_malloc_r+0x8a>
    80001f3c:	0fffe417          	auipc	s0,0xfffe
    80001f40:	70c40413          	addi	s0,s0,1804 # 90000648 <__malloc_sbrk_start>
    80001f44:	601c                	ld	a5,0(s0)
    80001f46:	e791                	bnez	a5,80001f52 <_malloc_r+0x70>
    80001f48:	4581                	li	a1,0
    80001f4a:	8526                	mv	a0,s1
    80001f4c:	086000ef          	jal	ra,80001fd2 <_sbrk_r>
    80001f50:	e008                	sd	a0,0(s0)
    80001f52:	85ca                	mv	a1,s2
    80001f54:	8526                	mv	a0,s1
    80001f56:	07c000ef          	jal	ra,80001fd2 <_sbrk_r>
    80001f5a:	59fd                	li	s3,-1
    80001f5c:	05351e63          	bne	a0,s3,80001fb8 <_malloc_r+0xd6>
    80001f60:	47b1                	li	a5,12
    80001f62:	c09c                	sw	a5,0(s1)
    80001f64:	8526                	mv	a0,s1
    80001f66:	09e000ef          	jal	ra,80002004 <__malloc_unlock>
    80001f6a:	b775                	j	80001f16 <_malloc_r+0x34>
    80001f6c:	601c                	ld	a5,0(s0)
    80001f6e:	412787bb          	subw	a5,a5,s2
    80001f72:	0407c063          	bltz	a5,80001fb2 <_malloc_r+0xd0>
    80001f76:	463d                	li	a2,15
    80001f78:	00f65763          	bge	a2,a5,80001f86 <_malloc_r+0xa4>
    80001f7c:	e01c                	sd	a5,0(s0)
    80001f7e:	943e                	add	s0,s0,a5
    80001f80:	01243023          	sd	s2,0(s0)
    80001f84:	a029                	j	80001f8e <_malloc_r+0xac>
    80001f86:	641c                	ld	a5,8(s0)
    80001f88:	02871363          	bne	a4,s0,80001fae <_malloc_r+0xcc>
    80001f8c:	e29c                	sd	a5,0(a3)
    80001f8e:	8526                	mv	a0,s1
    80001f90:	074000ef          	jal	ra,80002004 <__malloc_unlock>
    80001f94:	00f40513          	addi	a0,s0,15
    80001f98:	00840793          	addi	a5,s0,8
    80001f9c:	9961                	andi	a0,a0,-8
    80001f9e:	40f507bb          	subw	a5,a0,a5
    80001fa2:	dbbd                	beqz	a5,80001f18 <_malloc_r+0x36>
    80001fa4:	943e                	add	s0,s0,a5
    80001fa6:	40f007bb          	negw	a5,a5
    80001faa:	e01c                	sd	a5,0(s0)
    80001fac:	b7b5                	j	80001f18 <_malloc_r+0x36>
    80001fae:	e71c                	sd	a5,8(a4)
    80001fb0:	bff9                	j	80001f8e <_malloc_r+0xac>
    80001fb2:	8722                	mv	a4,s0
    80001fb4:	6400                	ld	s0,8(s0)
    80001fb6:	b751                	j	80001f3a <_malloc_r+0x58>
    80001fb8:	00750413          	addi	s0,a0,7
    80001fbc:	9861                	andi	s0,s0,-8
    80001fbe:	fc8501e3          	beq	a0,s0,80001f80 <_malloc_r+0x9e>
    80001fc2:	40a405b3          	sub	a1,s0,a0
    80001fc6:	8526                	mv	a0,s1
    80001fc8:	00a000ef          	jal	ra,80001fd2 <_sbrk_r>
    80001fcc:	fb351ae3          	bne	a0,s3,80001f80 <_malloc_r+0x9e>
    80001fd0:	bf41                	j	80001f60 <_malloc_r+0x7e>

0000000080001fd2 <_sbrk_r>:
    80001fd2:	1141                	addi	sp,sp,-16
    80001fd4:	e022                	sd	s0,0(sp)
    80001fd6:	842a                	mv	s0,a0
    80001fd8:	852e                	mv	a0,a1
    80001fda:	10009797          	auipc	a5,0x10009
    80001fde:	aa07a723          	sw	zero,-1362(a5) # 9000aa88 <errno>
    80001fe2:	e406                	sd	ra,8(sp)
    80001fe4:	16e010ef          	jal	ra,80003152 <_sbrk>
    80001fe8:	57fd                	li	a5,-1
    80001fea:	00f51863          	bne	a0,a5,80001ffa <_sbrk_r+0x28>
    80001fee:	10009797          	auipc	a5,0x10009
    80001ff2:	a9a7a783          	lw	a5,-1382(a5) # 9000aa88 <errno>
    80001ff6:	c391                	beqz	a5,80001ffa <_sbrk_r+0x28>
    80001ff8:	c01c                	sw	a5,0(s0)
    80001ffa:	60a2                	ld	ra,8(sp)
    80001ffc:	6402                	ld	s0,0(sp)
    80001ffe:	0141                	addi	sp,sp,16
    80002000:	8082                	ret

0000000080002002 <__malloc_lock>:
    80002002:	8082                	ret

0000000080002004 <__malloc_unlock>:
    80002004:	8082                	ret

0000000080002006 <iprintf>:
    80002006:	7159                	addi	sp,sp,-112
    80002008:	f022                	sd	s0,32(sp)
    8000200a:	f406                	sd	ra,40(sp)
    8000200c:	842a                	mv	s0,a0
    8000200e:	fc2e                	sd	a1,56(sp)
    80002010:	e0b2                	sd	a2,64(sp)
    80002012:	e4b6                	sd	a3,72(sp)
    80002014:	e8ba                	sd	a4,80(sp)
    80002016:	ecbe                	sd	a5,88(sp)
    80002018:	f0c2                	sd	a6,96(sp)
    8000201a:	f4c6                	sd	a7,104(sp)
    8000201c:	0fffe517          	auipc	a0,0xfffe
    80002020:	58453503          	ld	a0,1412(a0) # 900005a0 <_impure_ptr>
    80002024:	c519                	beqz	a0,80002032 <iprintf+0x2c>
    80002026:	591c                	lw	a5,48(a0)
    80002028:	e789                	bnez	a5,80002032 <iprintf+0x2c>
    8000202a:	e42a                	sd	a0,8(sp)
    8000202c:	546000ef          	jal	ra,80002572 <__sinit>
    80002030:	6522                	ld	a0,8(sp)
    80002032:	690c                	ld	a1,16(a0)
    80002034:	1834                	addi	a3,sp,56
    80002036:	8622                	mv	a2,s0
    80002038:	ec36                	sd	a3,24(sp)
    8000203a:	0d7000ef          	jal	ra,80002910 <_vfiprintf_r>
    8000203e:	70a2                	ld	ra,40(sp)
    80002040:	7402                	ld	s0,32(sp)
    80002042:	6165                	addi	sp,sp,112
    80002044:	8082                	ret

0000000080002046 <_puts_r>:
    80002046:	7179                	addi	sp,sp,-48
    80002048:	ec26                	sd	s1,24(sp)
    8000204a:	e84a                	sd	s2,16(sp)
    8000204c:	f406                	sd	ra,40(sp)
    8000204e:	f022                	sd	s0,32(sp)
    80002050:	e44e                	sd	s3,8(sp)
    80002052:	e052                	sd	s4,0(sp)
    80002054:	84aa                	mv	s1,a0
    80002056:	892e                	mv	s2,a1
    80002058:	c509                	beqz	a0,80002062 <_puts_r+0x1c>
    8000205a:	591c                	lw	a5,48(a0)
    8000205c:	e399                	bnez	a5,80002062 <_puts_r+0x1c>
    8000205e:	514000ef          	jal	ra,80002572 <__sinit>
    80002062:	589c                	lw	a5,48(s1)
    80002064:	6880                	ld	s0,16(s1)
    80002066:	e781                	bnez	a5,8000206e <_puts_r+0x28>
    80002068:	8526                	mv	a0,s1
    8000206a:	508000ef          	jal	ra,80002572 <__sinit>
    8000206e:	0fffe797          	auipc	a5,0xfffe
    80002072:	37278793          	addi	a5,a5,882 # 900003e0 <__sf_fake_stdin>
    80002076:	02f41f63          	bne	s0,a5,800020b4 <_puts_r+0x6e>
    8000207a:	6480                	ld	s0,8(s1)
    8000207c:	01045783          	lhu	a5,16(s0)
    80002080:	8ba1                	andi	a5,a5,8
    80002082:	cba9                	beqz	a5,800020d4 <_puts_r+0x8e>
    80002084:	6c1c                	ld	a5,24(s0)
    80002086:	c7b9                	beqz	a5,800020d4 <_puts_r+0x8e>
    80002088:	59fd                	li	s3,-1
    8000208a:	4a29                	li	s4,10
    8000208c:	4458                	lw	a4,12(s0)
    8000208e:	00094583          	lbu	a1,0(s2)
    80002092:	fff7079b          	addiw	a5,a4,-1
    80002096:	873e                	mv	a4,a5
    80002098:	eda1                	bnez	a1,800020f0 <_puts_r+0xaa>
    8000209a:	c45c                	sw	a5,12(s0)
    8000209c:	0807d163          	bgez	a5,8000211e <_puts_r+0xd8>
    800020a0:	8622                	mv	a2,s0
    800020a2:	45a9                	li	a1,10
    800020a4:	8526                	mv	a0,s1
    800020a6:	096000ef          	jal	ra,8000213c <__swbuf_r>
    800020aa:	57fd                	li	a5,-1
    800020ac:	02f50963          	beq	a0,a5,800020de <_puts_r+0x98>
    800020b0:	4529                	li	a0,10
    800020b2:	a03d                	j	800020e0 <_puts_r+0x9a>
    800020b4:	0fffe797          	auipc	a5,0xfffe
    800020b8:	36478793          	addi	a5,a5,868 # 90000418 <__sf_fake_stdout>
    800020bc:	00f41463          	bne	s0,a5,800020c4 <_puts_r+0x7e>
    800020c0:	6880                	ld	s0,16(s1)
    800020c2:	bf6d                	j	8000207c <_puts_r+0x36>
    800020c4:	0fffe797          	auipc	a5,0xfffe
    800020c8:	2e478793          	addi	a5,a5,740 # 900003a8 <__sf_fake_stderr>
    800020cc:	faf418e3          	bne	s0,a5,8000207c <_puts_r+0x36>
    800020d0:	6c80                	ld	s0,24(s1)
    800020d2:	b76d                	j	8000207c <_puts_r+0x36>
    800020d4:	85a2                	mv	a1,s0
    800020d6:	8526                	mv	a0,s1
    800020d8:	12a000ef          	jal	ra,80002202 <__swsetup_r>
    800020dc:	d555                	beqz	a0,80002088 <_puts_r+0x42>
    800020de:	557d                	li	a0,-1
    800020e0:	70a2                	ld	ra,40(sp)
    800020e2:	7402                	ld	s0,32(sp)
    800020e4:	64e2                	ld	s1,24(sp)
    800020e6:	6942                	ld	s2,16(sp)
    800020e8:	69a2                	ld	s3,8(sp)
    800020ea:	6a02                	ld	s4,0(sp)
    800020ec:	6145                	addi	sp,sp,48
    800020ee:	8082                	ret
    800020f0:	c458                	sw	a4,12(s0)
    800020f2:	0905                	addi	s2,s2,1
    800020f4:	0007d763          	bgez	a5,80002102 <_puts_r+0xbc>
    800020f8:	5418                	lw	a4,40(s0)
    800020fa:	00e7cb63          	blt	a5,a4,80002110 <_puts_r+0xca>
    800020fe:	01458963          	beq	a1,s4,80002110 <_puts_r+0xca>
    80002102:	601c                	ld	a5,0(s0)
    80002104:	00178713          	addi	a4,a5,1
    80002108:	e018                	sd	a4,0(s0)
    8000210a:	00b78023          	sb	a1,0(a5)
    8000210e:	bfbd                	j	8000208c <_puts_r+0x46>
    80002110:	8622                	mv	a2,s0
    80002112:	8526                	mv	a0,s1
    80002114:	028000ef          	jal	ra,8000213c <__swbuf_r>
    80002118:	f7351ae3          	bne	a0,s3,8000208c <_puts_r+0x46>
    8000211c:	b7c9                	j	800020de <_puts_r+0x98>
    8000211e:	601c                	ld	a5,0(s0)
    80002120:	00178713          	addi	a4,a5,1
    80002124:	e018                	sd	a4,0(s0)
    80002126:	4729                	li	a4,10
    80002128:	00e78023          	sb	a4,0(a5)
    8000212c:	b751                	j	800020b0 <_puts_r+0x6a>

000000008000212e <puts>:
    8000212e:	85aa                	mv	a1,a0
    80002130:	0fffe517          	auipc	a0,0xfffe
    80002134:	47053503          	ld	a0,1136(a0) # 900005a0 <_impure_ptr>
    80002138:	f0fff06f          	j	80002046 <_puts_r>

000000008000213c <__swbuf_r>:
    8000213c:	7179                	addi	sp,sp,-48
    8000213e:	f022                	sd	s0,32(sp)
    80002140:	ec26                	sd	s1,24(sp)
    80002142:	e84a                	sd	s2,16(sp)
    80002144:	f406                	sd	ra,40(sp)
    80002146:	e44e                	sd	s3,8(sp)
    80002148:	84aa                	mv	s1,a0
    8000214a:	892e                	mv	s2,a1
    8000214c:	8432                	mv	s0,a2
    8000214e:	c509                	beqz	a0,80002158 <__swbuf_r+0x1c>
    80002150:	591c                	lw	a5,48(a0)
    80002152:	e399                	bnez	a5,80002158 <__swbuf_r+0x1c>
    80002154:	41e000ef          	jal	ra,80002572 <__sinit>
    80002158:	0fffe797          	auipc	a5,0xfffe
    8000215c:	28878793          	addi	a5,a5,648 # 900003e0 <__sf_fake_stdin>
    80002160:	06f41a63          	bne	s0,a5,800021d4 <__swbuf_r+0x98>
    80002164:	6480                	ld	s0,8(s1)
    80002166:	541c                	lw	a5,40(s0)
    80002168:	c45c                	sw	a5,12(s0)
    8000216a:	01045783          	lhu	a5,16(s0)
    8000216e:	8ba1                	andi	a5,a5,8
    80002170:	c3d1                	beqz	a5,800021f4 <__swbuf_r+0xb8>
    80002172:	6c1c                	ld	a5,24(s0)
    80002174:	c3c1                	beqz	a5,800021f4 <__swbuf_r+0xb8>
    80002176:	6c1c                	ld	a5,24(s0)
    80002178:	6008                	ld	a0,0(s0)
    8000217a:	0ff97993          	andi	s3,s2,255
    8000217e:	894e                	mv	s2,s3
    80002180:	9d1d                	subw	a0,a0,a5
    80002182:	501c                	lw	a5,32(s0)
    80002184:	00f54763          	blt	a0,a5,80002192 <__swbuf_r+0x56>
    80002188:	85a2                	mv	a1,s0
    8000218a:	8526                	mv	a0,s1
    8000218c:	2c4000ef          	jal	ra,80002450 <_fflush_r>
    80002190:	e53d                	bnez	a0,800021fe <__swbuf_r+0xc2>
    80002192:	445c                	lw	a5,12(s0)
    80002194:	2505                	addiw	a0,a0,1
    80002196:	37fd                	addiw	a5,a5,-1
    80002198:	c45c                	sw	a5,12(s0)
    8000219a:	601c                	ld	a5,0(s0)
    8000219c:	00178713          	addi	a4,a5,1
    800021a0:	e018                	sd	a4,0(s0)
    800021a2:	01378023          	sb	s3,0(a5)
    800021a6:	501c                	lw	a5,32(s0)
    800021a8:	00a78963          	beq	a5,a0,800021ba <__swbuf_r+0x7e>
    800021ac:	01045783          	lhu	a5,16(s0)
    800021b0:	8b85                	andi	a5,a5,1
    800021b2:	cb89                	beqz	a5,800021c4 <__swbuf_r+0x88>
    800021b4:	47a9                	li	a5,10
    800021b6:	00f91763          	bne	s2,a5,800021c4 <__swbuf_r+0x88>
    800021ba:	85a2                	mv	a1,s0
    800021bc:	8526                	mv	a0,s1
    800021be:	292000ef          	jal	ra,80002450 <_fflush_r>
    800021c2:	ed15                	bnez	a0,800021fe <__swbuf_r+0xc2>
    800021c4:	70a2                	ld	ra,40(sp)
    800021c6:	7402                	ld	s0,32(sp)
    800021c8:	64e2                	ld	s1,24(sp)
    800021ca:	69a2                	ld	s3,8(sp)
    800021cc:	854a                	mv	a0,s2
    800021ce:	6942                	ld	s2,16(sp)
    800021d0:	6145                	addi	sp,sp,48
    800021d2:	8082                	ret
    800021d4:	0fffe797          	auipc	a5,0xfffe
    800021d8:	24478793          	addi	a5,a5,580 # 90000418 <__sf_fake_stdout>
    800021dc:	00f41463          	bne	s0,a5,800021e4 <__swbuf_r+0xa8>
    800021e0:	6880                	ld	s0,16(s1)
    800021e2:	b751                	j	80002166 <__swbuf_r+0x2a>
    800021e4:	0fffe797          	auipc	a5,0xfffe
    800021e8:	1c478793          	addi	a5,a5,452 # 900003a8 <__sf_fake_stderr>
    800021ec:	f6f41de3          	bne	s0,a5,80002166 <__swbuf_r+0x2a>
    800021f0:	6c80                	ld	s0,24(s1)
    800021f2:	bf95                	j	80002166 <__swbuf_r+0x2a>
    800021f4:	85a2                	mv	a1,s0
    800021f6:	8526                	mv	a0,s1
    800021f8:	00a000ef          	jal	ra,80002202 <__swsetup_r>
    800021fc:	dd2d                	beqz	a0,80002176 <__swbuf_r+0x3a>
    800021fe:	597d                	li	s2,-1
    80002200:	b7d1                	j	800021c4 <__swbuf_r+0x88>

0000000080002202 <__swsetup_r>:
    80002202:	1101                	addi	sp,sp,-32
    80002204:	e822                	sd	s0,16(sp)
    80002206:	e426                	sd	s1,8(sp)
    80002208:	e04a                	sd	s2,0(sp)
    8000220a:	ec06                	sd	ra,24(sp)
    8000220c:	0fffe497          	auipc	s1,0xfffe
    80002210:	3944b483          	ld	s1,916(s1) # 900005a0 <_impure_ptr>
    80002214:	892a                	mv	s2,a0
    80002216:	842e                	mv	s0,a1
    80002218:	c491                	beqz	s1,80002224 <__swsetup_r+0x22>
    8000221a:	589c                	lw	a5,48(s1)
    8000221c:	e781                	bnez	a5,80002224 <__swsetup_r+0x22>
    8000221e:	8526                	mv	a0,s1
    80002220:	352000ef          	jal	ra,80002572 <__sinit>
    80002224:	0fffe797          	auipc	a5,0xfffe
    80002228:	1bc78793          	addi	a5,a5,444 # 900003e0 <__sf_fake_stdin>
    8000222c:	02f41763          	bne	s0,a5,8000225a <__swsetup_r+0x58>
    80002230:	6480                	ld	s0,8(s1)
    80002232:	01041783          	lh	a5,16(s0)
    80002236:	03079713          	slli	a4,a5,0x30
    8000223a:	0087f693          	andi	a3,a5,8
    8000223e:	9341                	srli	a4,a4,0x30
    80002240:	eab5                	bnez	a3,800022b4 <__swsetup_r+0xb2>
    80002242:	01077693          	andi	a3,a4,16
    80002246:	ea95                	bnez	a3,8000227a <__swsetup_r+0x78>
    80002248:	4725                	li	a4,9
    8000224a:	00e92023          	sw	a4,0(s2)
    8000224e:	0407e793          	ori	a5,a5,64
    80002252:	00f41823          	sh	a5,16(s0)
    80002256:	557d                	li	a0,-1
    80002258:	a045                	j	800022f8 <__swsetup_r+0xf6>
    8000225a:	0fffe797          	auipc	a5,0xfffe
    8000225e:	1be78793          	addi	a5,a5,446 # 90000418 <__sf_fake_stdout>
    80002262:	00f41463          	bne	s0,a5,8000226a <__swsetup_r+0x68>
    80002266:	6880                	ld	s0,16(s1)
    80002268:	b7e9                	j	80002232 <__swsetup_r+0x30>
    8000226a:	0fffe797          	auipc	a5,0xfffe
    8000226e:	13e78793          	addi	a5,a5,318 # 900003a8 <__sf_fake_stderr>
    80002272:	fcf410e3          	bne	s0,a5,80002232 <__swsetup_r+0x30>
    80002276:	6c80                	ld	s0,24(s1)
    80002278:	bf6d                	j	80002232 <__swsetup_r+0x30>
    8000227a:	8b11                	andi	a4,a4,4
    8000227c:	c715                	beqz	a4,800022a8 <__swsetup_r+0xa6>
    8000227e:	702c                	ld	a1,96(s0)
    80002280:	c991                	beqz	a1,80002294 <__swsetup_r+0x92>
    80002282:	07c40793          	addi	a5,s0,124
    80002286:	00f58563          	beq	a1,a5,80002290 <__swsetup_r+0x8e>
    8000228a:	854a                	mv	a0,s2
    8000228c:	badff0ef          	jal	ra,80001e38 <_free_r>
    80002290:	06043023          	sd	zero,96(s0)
    80002294:	01045783          	lhu	a5,16(s0)
    80002298:	00042423          	sw	zero,8(s0)
    8000229c:	fdb7f793          	andi	a5,a5,-37
    800022a0:	00f41823          	sh	a5,16(s0)
    800022a4:	6c1c                	ld	a5,24(s0)
    800022a6:	e01c                	sd	a5,0(s0)
    800022a8:	01045783          	lhu	a5,16(s0)
    800022ac:	0087e793          	ori	a5,a5,8
    800022b0:	00f41823          	sh	a5,16(s0)
    800022b4:	6c1c                	ld	a5,24(s0)
    800022b6:	ef89                	bnez	a5,800022d0 <__swsetup_r+0xce>
    800022b8:	01045783          	lhu	a5,16(s0)
    800022bc:	20000713          	li	a4,512
    800022c0:	2807f793          	andi	a5,a5,640
    800022c4:	00e78663          	beq	a5,a4,800022d0 <__swsetup_r+0xce>
    800022c8:	85a2                	mv	a1,s0
    800022ca:	854a                	mv	a0,s2
    800022cc:	482000ef          	jal	ra,8000274e <__smakebuf_r>
    800022d0:	01041783          	lh	a5,16(s0)
    800022d4:	03079713          	slli	a4,a5,0x30
    800022d8:	0017f693          	andi	a3,a5,1
    800022dc:	9341                	srli	a4,a4,0x30
    800022de:	c29d                	beqz	a3,80002304 <__swsetup_r+0x102>
    800022e0:	5014                	lw	a3,32(s0)
    800022e2:	00042623          	sw	zero,12(s0)
    800022e6:	40d006bb          	negw	a3,a3
    800022ea:	d414                	sw	a3,40(s0)
    800022ec:	6c14                	ld	a3,24(s0)
    800022ee:	4501                	li	a0,0
    800022f0:	e681                	bnez	a3,800022f8 <__swsetup_r+0xf6>
    800022f2:	08077713          	andi	a4,a4,128
    800022f6:	ff21                	bnez	a4,8000224e <__swsetup_r+0x4c>
    800022f8:	60e2                	ld	ra,24(sp)
    800022fa:	6442                	ld	s0,16(sp)
    800022fc:	64a2                	ld	s1,8(sp)
    800022fe:	6902                	ld	s2,0(sp)
    80002300:	6105                	addi	sp,sp,32
    80002302:	8082                	ret
    80002304:	00277693          	andi	a3,a4,2
    80002308:	4601                	li	a2,0
    8000230a:	e291                	bnez	a3,8000230e <__swsetup_r+0x10c>
    8000230c:	5010                	lw	a2,32(s0)
    8000230e:	c450                	sw	a2,12(s0)
    80002310:	bff1                	j	800022ec <__swsetup_r+0xea>

0000000080002312 <__sflush_r>:
    80002312:	0105d783          	lhu	a5,16(a1)
    80002316:	7179                	addi	sp,sp,-48
    80002318:	f022                	sd	s0,32(sp)
    8000231a:	ec26                	sd	s1,24(sp)
    8000231c:	f406                	sd	ra,40(sp)
    8000231e:	e84a                	sd	s2,16(sp)
    80002320:	e44e                	sd	s3,8(sp)
    80002322:	0087f713          	andi	a4,a5,8
    80002326:	84aa                	mv	s1,a0
    80002328:	842e                	mv	s0,a1
    8000232a:	ef79                	bnez	a4,80002408 <__sflush_r+0xf6>
    8000232c:	4598                	lw	a4,8(a1)
    8000232e:	00e04d63          	bgtz	a4,80002348 <__sflush_r+0x36>
    80002332:	5db8                	lw	a4,120(a1)
    80002334:	00e04a63          	bgtz	a4,80002348 <__sflush_r+0x36>
    80002338:	4501                	li	a0,0
    8000233a:	70a2                	ld	ra,40(sp)
    8000233c:	7402                	ld	s0,32(sp)
    8000233e:	64e2                	ld	s1,24(sp)
    80002340:	6942                	ld	s2,16(sp)
    80002342:	69a2                	ld	s3,8(sp)
    80002344:	6145                	addi	sp,sp,48
    80002346:	8082                	ret
    80002348:	6838                	ld	a4,80(s0)
    8000234a:	d77d                	beqz	a4,80002338 <__sflush_r+0x26>
    8000234c:	0004a903          	lw	s2,0(s1)
    80002350:	03379693          	slli	a3,a5,0x33
    80002354:	0004a023          	sw	zero,0(s1)
    80002358:	0606de63          	bgez	a3,800023d4 <__sflush_r+0xc2>
    8000235c:	6c50                	ld	a2,152(s0)
    8000235e:	01045783          	lhu	a5,16(s0)
    80002362:	8b91                	andi	a5,a5,4
    80002364:	c799                	beqz	a5,80002372 <__sflush_r+0x60>
    80002366:	441c                	lw	a5,8(s0)
    80002368:	8e1d                	sub	a2,a2,a5
    8000236a:	703c                	ld	a5,96(s0)
    8000236c:	c399                	beqz	a5,80002372 <__sflush_r+0x60>
    8000236e:	5c3c                	lw	a5,120(s0)
    80002370:	8e1d                	sub	a2,a2,a5
    80002372:	683c                	ld	a5,80(s0)
    80002374:	7c0c                	ld	a1,56(s0)
    80002376:	4681                	li	a3,0
    80002378:	8526                	mv	a0,s1
    8000237a:	9782                	jalr	a5
    8000237c:	57fd                	li	a5,-1
    8000237e:	01045703          	lhu	a4,16(s0)
    80002382:	00f51d63          	bne	a0,a5,8000239c <__sflush_r+0x8a>
    80002386:	4094                	lw	a3,0(s1)
    80002388:	47f5                	li	a5,29
    8000238a:	06d7e963          	bltu	a5,a3,800023fc <__sflush_r+0xea>
    8000238e:	204007b7          	lui	a5,0x20400
    80002392:	0785                	addi	a5,a5,1
    80002394:	00d7d7b3          	srl	a5,a5,a3
    80002398:	8b85                	andi	a5,a5,1
    8000239a:	c3ad                	beqz	a5,800023fc <__sflush_r+0xea>
    8000239c:	6c1c                	ld	a5,24(s0)
    8000239e:	00042423          	sw	zero,8(s0)
    800023a2:	e01c                	sd	a5,0(s0)
    800023a4:	03371793          	slli	a5,a4,0x33
    800023a8:	0007d863          	bgez	a5,800023b8 <__sflush_r+0xa6>
    800023ac:	57fd                	li	a5,-1
    800023ae:	00f51463          	bne	a0,a5,800023b6 <__sflush_r+0xa4>
    800023b2:	409c                	lw	a5,0(s1)
    800023b4:	e391                	bnez	a5,800023b8 <__sflush_r+0xa6>
    800023b6:	ec48                	sd	a0,152(s0)
    800023b8:	702c                	ld	a1,96(s0)
    800023ba:	0124a023          	sw	s2,0(s1)
    800023be:	ddad                	beqz	a1,80002338 <__sflush_r+0x26>
    800023c0:	07c40793          	addi	a5,s0,124
    800023c4:	00f58563          	beq	a1,a5,800023ce <__sflush_r+0xbc>
    800023c8:	8526                	mv	a0,s1
    800023ca:	a6fff0ef          	jal	ra,80001e38 <_free_r>
    800023ce:	06043023          	sd	zero,96(s0)
    800023d2:	b79d                	j	80002338 <__sflush_r+0x26>
    800023d4:	7c0c                	ld	a1,56(s0)
    800023d6:	4601                	li	a2,0
    800023d8:	4685                	li	a3,1
    800023da:	8526                	mv	a0,s1
    800023dc:	9702                	jalr	a4
    800023de:	57fd                	li	a5,-1
    800023e0:	862a                	mv	a2,a0
    800023e2:	f6f51ee3          	bne	a0,a5,8000235e <__sflush_r+0x4c>
    800023e6:	409c                	lw	a5,0(s1)
    800023e8:	dbbd                	beqz	a5,8000235e <__sflush_r+0x4c>
    800023ea:	4775                	li	a4,29
    800023ec:	00e78563          	beq	a5,a4,800023f6 <__sflush_r+0xe4>
    800023f0:	4759                	li	a4,22
    800023f2:	04e79463          	bne	a5,a4,8000243a <__sflush_r+0x128>
    800023f6:	0124a023          	sw	s2,0(s1)
    800023fa:	bf3d                	j	80002338 <__sflush_r+0x26>
    800023fc:	04076713          	ori	a4,a4,64
    80002400:	00e41823          	sh	a4,16(s0)
    80002404:	557d                	li	a0,-1
    80002406:	bf15                	j	8000233a <__sflush_r+0x28>
    80002408:	0185b983          	ld	s3,24(a1)
    8000240c:	f20986e3          	beqz	s3,80002338 <__sflush_r+0x26>
    80002410:	0005b903          	ld	s2,0(a1)
    80002414:	8b8d                	andi	a5,a5,3
    80002416:	0135b023          	sd	s3,0(a1)
    8000241a:	4139093b          	subw	s2,s2,s3
    8000241e:	4701                	li	a4,0
    80002420:	e391                	bnez	a5,80002424 <__sflush_r+0x112>
    80002422:	5198                	lw	a4,32(a1)
    80002424:	c458                	sw	a4,12(s0)
    80002426:	f12059e3          	blez	s2,80002338 <__sflush_r+0x26>
    8000242a:	643c                	ld	a5,72(s0)
    8000242c:	7c0c                	ld	a1,56(s0)
    8000242e:	86ca                	mv	a3,s2
    80002430:	864e                	mv	a2,s3
    80002432:	8526                	mv	a0,s1
    80002434:	9782                	jalr	a5
    80002436:	00a04963          	bgtz	a0,80002448 <__sflush_r+0x136>
    8000243a:	01045783          	lhu	a5,16(s0)
    8000243e:	0407e793          	ori	a5,a5,64
    80002442:	00f41823          	sh	a5,16(s0)
    80002446:	bf7d                	j	80002404 <__sflush_r+0xf2>
    80002448:	99aa                	add	s3,s3,a0
    8000244a:	40a9093b          	subw	s2,s2,a0
    8000244e:	bfe1                	j	80002426 <__sflush_r+0x114>

0000000080002450 <_fflush_r>:
    80002450:	6d9c                	ld	a5,24(a1)
    80002452:	c3ad                	beqz	a5,800024b4 <_fflush_r+0x64>
    80002454:	1101                	addi	sp,sp,-32
    80002456:	e822                	sd	s0,16(sp)
    80002458:	ec06                	sd	ra,24(sp)
    8000245a:	842a                	mv	s0,a0
    8000245c:	c519                	beqz	a0,8000246a <_fflush_r+0x1a>
    8000245e:	591c                	lw	a5,48(a0)
    80002460:	e789                	bnez	a5,8000246a <_fflush_r+0x1a>
    80002462:	e42e                	sd	a1,8(sp)
    80002464:	10e000ef          	jal	ra,80002572 <__sinit>
    80002468:	65a2                	ld	a1,8(sp)
    8000246a:	0fffe797          	auipc	a5,0xfffe
    8000246e:	f7678793          	addi	a5,a5,-138 # 900003e0 <__sf_fake_stdin>
    80002472:	00f59c63          	bne	a1,a5,8000248a <_fflush_r+0x3a>
    80002476:	640c                	ld	a1,8(s0)
    80002478:	01059783          	lh	a5,16(a1)
    8000247c:	c79d                	beqz	a5,800024aa <_fflush_r+0x5a>
    8000247e:	8522                	mv	a0,s0
    80002480:	6442                	ld	s0,16(sp)
    80002482:	60e2                	ld	ra,24(sp)
    80002484:	6105                	addi	sp,sp,32
    80002486:	e8dff06f          	j	80002312 <__sflush_r>
    8000248a:	0fffe797          	auipc	a5,0xfffe
    8000248e:	f8e78793          	addi	a5,a5,-114 # 90000418 <__sf_fake_stdout>
    80002492:	00f59463          	bne	a1,a5,8000249a <_fflush_r+0x4a>
    80002496:	680c                	ld	a1,16(s0)
    80002498:	b7c5                	j	80002478 <_fflush_r+0x28>
    8000249a:	0fffe797          	auipc	a5,0xfffe
    8000249e:	f0e78793          	addi	a5,a5,-242 # 900003a8 <__sf_fake_stderr>
    800024a2:	fcf59be3          	bne	a1,a5,80002478 <_fflush_r+0x28>
    800024a6:	6c0c                	ld	a1,24(s0)
    800024a8:	bfc1                	j	80002478 <_fflush_r+0x28>
    800024aa:	60e2                	ld	ra,24(sp)
    800024ac:	6442                	ld	s0,16(sp)
    800024ae:	4501                	li	a0,0
    800024b0:	6105                	addi	sp,sp,32
    800024b2:	8082                	ret
    800024b4:	4501                	li	a0,0
    800024b6:	8082                	ret

00000000800024b8 <std>:
    800024b8:	1141                	addi	sp,sp,-16
    800024ba:	e022                	sd	s0,0(sp)
    800024bc:	e406                	sd	ra,8(sp)
    800024be:	842a                	mv	s0,a0
    800024c0:	00b51823          	sh	a1,16(a0)
    800024c4:	00c51923          	sh	a2,18(a0)
    800024c8:	00053023          	sd	zero,0(a0)
    800024cc:	00053423          	sd	zero,8(a0)
    800024d0:	0a052623          	sw	zero,172(a0)
    800024d4:	00053c23          	sd	zero,24(a0)
    800024d8:	02052023          	sw	zero,32(a0)
    800024dc:	02052423          	sw	zero,40(a0)
    800024e0:	4621                	li	a2,8
    800024e2:	4581                	li	a1,0
    800024e4:	0a450513          	addi	a0,a0,164
    800024e8:	308000ef          	jal	ra,800027f0 <memset>
    800024ec:	00000797          	auipc	a5,0x0
    800024f0:	6d678793          	addi	a5,a5,1750 # 80002bc2 <__sread>
    800024f4:	e03c                	sd	a5,64(s0)
    800024f6:	00000797          	auipc	a5,0x0
    800024fa:	6fe78793          	addi	a5,a5,1790 # 80002bf4 <__swrite>
    800024fe:	e43c                	sd	a5,72(s0)
    80002500:	00000797          	auipc	a5,0x0
    80002504:	74678793          	addi	a5,a5,1862 # 80002c46 <__sseek>
    80002508:	e83c                	sd	a5,80(s0)
    8000250a:	00000797          	auipc	a5,0x0
    8000250e:	77478793          	addi	a5,a5,1908 # 80002c7e <__sclose>
    80002512:	60a2                	ld	ra,8(sp)
    80002514:	fc00                	sd	s0,56(s0)
    80002516:	ec3c                	sd	a5,88(s0)
    80002518:	6402                	ld	s0,0(sp)
    8000251a:	0141                	addi	sp,sp,16
    8000251c:	8082                	ret

000000008000251e <_cleanup_r>:
    8000251e:	00000597          	auipc	a1,0x0
    80002522:	f3258593          	addi	a1,a1,-206 # 80002450 <_fflush_r>
    80002526:	1600006f          	j	80002686 <_fwalk_reent>

000000008000252a <__sfmoreglue>:
    8000252a:	1101                	addi	sp,sp,-32
    8000252c:	e426                	sd	s1,8(sp)
    8000252e:	0b000613          	li	a2,176
    80002532:	fff5849b          	addiw	s1,a1,-1
    80002536:	02c484b3          	mul	s1,s1,a2
    8000253a:	e04a                	sd	s2,0(sp)
    8000253c:	892e                	mv	s2,a1
    8000253e:	e822                	sd	s0,16(sp)
    80002540:	ec06                	sd	ra,24(sp)
    80002542:	0c848593          	addi	a1,s1,200
    80002546:	99dff0ef          	jal	ra,80001ee2 <_malloc_r>
    8000254a:	842a                	mv	s0,a0
    8000254c:	cd01                	beqz	a0,80002564 <__sfmoreglue+0x3a>
    8000254e:	00053023          	sd	zero,0(a0)
    80002552:	01252423          	sw	s2,8(a0)
    80002556:	0561                	addi	a0,a0,24
    80002558:	e808                	sd	a0,16(s0)
    8000255a:	0b048613          	addi	a2,s1,176
    8000255e:	4581                	li	a1,0
    80002560:	290000ef          	jal	ra,800027f0 <memset>
    80002564:	60e2                	ld	ra,24(sp)
    80002566:	8522                	mv	a0,s0
    80002568:	6442                	ld	s0,16(sp)
    8000256a:	64a2                	ld	s1,8(sp)
    8000256c:	6902                	ld	s2,0(sp)
    8000256e:	6105                	addi	sp,sp,32
    80002570:	8082                	ret

0000000080002572 <__sinit>:
    80002572:	591c                	lw	a5,48(a0)
    80002574:	ebad                	bnez	a5,800025e6 <__sinit+0x74>
    80002576:	1141                	addi	sp,sp,-16
    80002578:	e022                	sd	s0,0(sp)
    8000257a:	e406                	sd	ra,8(sp)
    8000257c:	00000797          	auipc	a5,0x0
    80002580:	fa278793          	addi	a5,a5,-94 # 8000251e <_cleanup_r>
    80002584:	e53c                	sd	a5,72(a0)
    80002586:	08053023          	sd	zero,128(a0)
    8000258a:	08052423          	sw	zero,136(a0)
    8000258e:	08053823          	sd	zero,144(a0)
    80002592:	0fffe797          	auipc	a5,0xfffe
    80002596:	0167b783          	ld	a5,22(a5) # 900005a8 <_global_impure_ptr>
    8000259a:	842a                	mv	s0,a0
    8000259c:	00f51463          	bne	a0,a5,800025a4 <__sinit+0x32>
    800025a0:	4785                	li	a5,1
    800025a2:	d91c                	sw	a5,48(a0)
    800025a4:	8522                	mv	a0,s0
    800025a6:	042000ef          	jal	ra,800025e8 <__sfp>
    800025aa:	e408                	sd	a0,8(s0)
    800025ac:	8522                	mv	a0,s0
    800025ae:	03a000ef          	jal	ra,800025e8 <__sfp>
    800025b2:	e808                	sd	a0,16(s0)
    800025b4:	8522                	mv	a0,s0
    800025b6:	032000ef          	jal	ra,800025e8 <__sfp>
    800025ba:	ec08                	sd	a0,24(s0)
    800025bc:	6408                	ld	a0,8(s0)
    800025be:	4601                	li	a2,0
    800025c0:	4591                	li	a1,4
    800025c2:	ef7ff0ef          	jal	ra,800024b8 <std>
    800025c6:	6808                	ld	a0,16(s0)
    800025c8:	4605                	li	a2,1
    800025ca:	45a5                	li	a1,9
    800025cc:	eedff0ef          	jal	ra,800024b8 <std>
    800025d0:	6c08                	ld	a0,24(s0)
    800025d2:	4609                	li	a2,2
    800025d4:	45c9                	li	a1,18
    800025d6:	ee3ff0ef          	jal	ra,800024b8 <std>
    800025da:	4785                	li	a5,1
    800025dc:	60a2                	ld	ra,8(sp)
    800025de:	d81c                	sw	a5,48(s0)
    800025e0:	6402                	ld	s0,0(sp)
    800025e2:	0141                	addi	sp,sp,16
    800025e4:	8082                	ret
    800025e6:	8082                	ret

00000000800025e8 <__sfp>:
    800025e8:	1101                	addi	sp,sp,-32
    800025ea:	e426                	sd	s1,8(sp)
    800025ec:	0fffe497          	auipc	s1,0xfffe
    800025f0:	fbc4b483          	ld	s1,-68(s1) # 900005a8 <_global_impure_ptr>
    800025f4:	589c                	lw	a5,48(s1)
    800025f6:	e04a                	sd	s2,0(sp)
    800025f8:	ec06                	sd	ra,24(sp)
    800025fa:	e822                	sd	s0,16(sp)
    800025fc:	892a                	mv	s2,a0
    800025fe:	e781                	bnez	a5,80002606 <__sfp+0x1e>
    80002600:	8526                	mv	a0,s1
    80002602:	f71ff0ef          	jal	ra,80002572 <__sinit>
    80002606:	08048493          	addi	s1,s1,128
    8000260a:	6880                	ld	s0,16(s1)
    8000260c:	449c                	lw	a5,8(s1)
    8000260e:	37fd                	addiw	a5,a5,-1
    80002610:	0007d663          	bgez	a5,8000261c <__sfp+0x34>
    80002614:	609c                	ld	a5,0(s1)
    80002616:	cfa9                	beqz	a5,80002670 <__sfp+0x88>
    80002618:	6084                	ld	s1,0(s1)
    8000261a:	bfc5                	j	8000260a <__sfp+0x22>
    8000261c:	01041703          	lh	a4,16(s0)
    80002620:	e729                	bnez	a4,8000266a <__sfp+0x82>
    80002622:	77c1                	lui	a5,0xffff0
    80002624:	2785                	addiw	a5,a5,1
    80002626:	0a042623          	sw	zero,172(s0)
    8000262a:	00043023          	sd	zero,0(s0)
    8000262e:	00043423          	sd	zero,8(s0)
    80002632:	c81c                	sw	a5,16(s0)
    80002634:	00043c23          	sd	zero,24(s0)
    80002638:	02042023          	sw	zero,32(s0)
    8000263c:	02042423          	sw	zero,40(s0)
    80002640:	4621                	li	a2,8
    80002642:	4581                	li	a1,0
    80002644:	0a440513          	addi	a0,s0,164
    80002648:	1a8000ef          	jal	ra,800027f0 <memset>
    8000264c:	06043023          	sd	zero,96(s0)
    80002650:	06042423          	sw	zero,104(s0)
    80002654:	08043023          	sd	zero,128(s0)
    80002658:	08042423          	sw	zero,136(s0)
    8000265c:	60e2                	ld	ra,24(sp)
    8000265e:	8522                	mv	a0,s0
    80002660:	6442                	ld	s0,16(sp)
    80002662:	64a2                	ld	s1,8(sp)
    80002664:	6902                	ld	s2,0(sp)
    80002666:	6105                	addi	sp,sp,32
    80002668:	8082                	ret
    8000266a:	0b040413          	addi	s0,s0,176
    8000266e:	b745                	j	8000260e <__sfp+0x26>
    80002670:	4591                	li	a1,4
    80002672:	854a                	mv	a0,s2
    80002674:	eb7ff0ef          	jal	ra,8000252a <__sfmoreglue>
    80002678:	e088                	sd	a0,0(s1)
    8000267a:	842a                	mv	s0,a0
    8000267c:	fd51                	bnez	a0,80002618 <__sfp+0x30>
    8000267e:	47b1                	li	a5,12
    80002680:	00f92023          	sw	a5,0(s2)
    80002684:	bfe1                	j	8000265c <__sfp+0x74>

0000000080002686 <_fwalk_reent>:
    80002686:	715d                	addi	sp,sp,-80
    80002688:	e0a2                	sd	s0,64(sp)
    8000268a:	fc26                	sd	s1,56(sp)
    8000268c:	f44e                	sd	s3,40(sp)
    8000268e:	f052                	sd	s4,32(sp)
    80002690:	e85a                	sd	s6,16(sp)
    80002692:	e45e                	sd	s7,8(sp)
    80002694:	e486                	sd	ra,72(sp)
    80002696:	f84a                	sd	s2,48(sp)
    80002698:	ec56                	sd	s5,24(sp)
    8000269a:	89aa                	mv	s3,a0
    8000269c:	8a2e                	mv	s4,a1
    8000269e:	08050493          	addi	s1,a0,128
    800026a2:	4401                	li	s0,0
    800026a4:	4b05                	li	s6,1
    800026a6:	5bfd                	li	s7,-1
    800026a8:	0104b903          	ld	s2,16(s1)
    800026ac:	0084aa83          	lw	s5,8(s1)
    800026b0:	3afd                	addiw	s5,s5,-1
    800026b2:	020ad063          	bgez	s5,800026d2 <_fwalk_reent+0x4c>
    800026b6:	6084                	ld	s1,0(s1)
    800026b8:	f8e5                	bnez	s1,800026a8 <_fwalk_reent+0x22>
    800026ba:	60a6                	ld	ra,72(sp)
    800026bc:	8522                	mv	a0,s0
    800026be:	6406                	ld	s0,64(sp)
    800026c0:	74e2                	ld	s1,56(sp)
    800026c2:	7942                	ld	s2,48(sp)
    800026c4:	79a2                	ld	s3,40(sp)
    800026c6:	7a02                	ld	s4,32(sp)
    800026c8:	6ae2                	ld	s5,24(sp)
    800026ca:	6b42                	ld	s6,16(sp)
    800026cc:	6ba2                	ld	s7,8(sp)
    800026ce:	6161                	addi	sp,sp,80
    800026d0:	8082                	ret
    800026d2:	01095783          	lhu	a5,16(s2)
    800026d6:	00fb7b63          	bgeu	s6,a5,800026ec <_fwalk_reent+0x66>
    800026da:	01291783          	lh	a5,18(s2)
    800026de:	01778763          	beq	a5,s7,800026ec <_fwalk_reent+0x66>
    800026e2:	85ca                	mv	a1,s2
    800026e4:	854e                	mv	a0,s3
    800026e6:	9a02                	jalr	s4
    800026e8:	8c49                	or	s0,s0,a0
    800026ea:	2401                	sext.w	s0,s0
    800026ec:	0b090913          	addi	s2,s2,176
    800026f0:	b7c1                	j	800026b0 <_fwalk_reent+0x2a>

00000000800026f2 <__swhatbuf_r>:
    800026f2:	7175                	addi	sp,sp,-144
    800026f4:	f8ca                	sd	s2,112(sp)
    800026f6:	892e                	mv	s2,a1
    800026f8:	01259583          	lh	a1,18(a1)
    800026fc:	e122                	sd	s0,128(sp)
    800026fe:	fca6                	sd	s1,120(sp)
    80002700:	e506                	sd	ra,136(sp)
    80002702:	8432                	mv	s0,a2
    80002704:	84b6                	mv	s1,a3
    80002706:	0005dc63          	bgez	a1,8000271e <__swhatbuf_r+0x2c>
    8000270a:	01095783          	lhu	a5,16(s2)
    8000270e:	0004a023          	sw	zero,0(s1)
    80002712:	0807f793          	andi	a5,a5,128
    80002716:	e395                	bnez	a5,8000273a <__swhatbuf_r+0x48>
    80002718:	40000793          	li	a5,1024
    8000271c:	a00d                	j	8000273e <__swhatbuf_r+0x4c>
    8000271e:	0030                	addi	a2,sp,8
    80002720:	596000ef          	jal	ra,80002cb6 <_fstat_r>
    80002724:	fe0543e3          	bltz	a0,8000270a <__swhatbuf_r+0x18>
    80002728:	47b2                	lw	a5,12(sp)
    8000272a:	673d                	lui	a4,0xf
    8000272c:	8ff9                	and	a5,a5,a4
    8000272e:	6709                	lui	a4,0x2
    80002730:	8f99                	sub	a5,a5,a4
    80002732:	0017b793          	seqz	a5,a5
    80002736:	c09c                	sw	a5,0(s1)
    80002738:	b7c5                	j	80002718 <__swhatbuf_r+0x26>
    8000273a:	04000793          	li	a5,64
    8000273e:	60aa                	ld	ra,136(sp)
    80002740:	e01c                	sd	a5,0(s0)
    80002742:	640a                	ld	s0,128(sp)
    80002744:	74e6                	ld	s1,120(sp)
    80002746:	7946                	ld	s2,112(sp)
    80002748:	4501                	li	a0,0
    8000274a:	6149                	addi	sp,sp,144
    8000274c:	8082                	ret

000000008000274e <__smakebuf_r>:
    8000274e:	0105d783          	lhu	a5,16(a1)
    80002752:	7179                	addi	sp,sp,-48
    80002754:	f022                	sd	s0,32(sp)
    80002756:	f406                	sd	ra,40(sp)
    80002758:	ec26                	sd	s1,24(sp)
    8000275a:	e84a                	sd	s2,16(sp)
    8000275c:	8b89                	andi	a5,a5,2
    8000275e:	842e                	mv	s0,a1
    80002760:	cf89                	beqz	a5,8000277a <__smakebuf_r+0x2c>
    80002762:	07f40793          	addi	a5,s0,127
    80002766:	e01c                	sd	a5,0(s0)
    80002768:	ec1c                	sd	a5,24(s0)
    8000276a:	4785                	li	a5,1
    8000276c:	d01c                	sw	a5,32(s0)
    8000276e:	70a2                	ld	ra,40(sp)
    80002770:	7402                	ld	s0,32(sp)
    80002772:	64e2                	ld	s1,24(sp)
    80002774:	6942                	ld	s2,16(sp)
    80002776:	6145                	addi	sp,sp,48
    80002778:	8082                	ret
    8000277a:	0054                	addi	a3,sp,4
    8000277c:	0030                	addi	a2,sp,8
    8000277e:	892a                	mv	s2,a0
    80002780:	f73ff0ef          	jal	ra,800026f2 <__swhatbuf_r>
    80002784:	65a2                	ld	a1,8(sp)
    80002786:	84aa                	mv	s1,a0
    80002788:	854a                	mv	a0,s2
    8000278a:	f58ff0ef          	jal	ra,80001ee2 <_malloc_r>
    8000278e:	ed01                	bnez	a0,800027a6 <__smakebuf_r+0x58>
    80002790:	01041783          	lh	a5,16(s0)
    80002794:	2007f713          	andi	a4,a5,512
    80002798:	fb79                	bnez	a4,8000276e <__smakebuf_r+0x20>
    8000279a:	9bf1                	andi	a5,a5,-4
    8000279c:	0027e793          	ori	a5,a5,2
    800027a0:	00f41823          	sh	a5,16(s0)
    800027a4:	bf7d                	j	80002762 <__smakebuf_r+0x14>
    800027a6:	00000797          	auipc	a5,0x0
    800027aa:	d7878793          	addi	a5,a5,-648 # 8000251e <_cleanup_r>
    800027ae:	04f93423          	sd	a5,72(s2)
    800027b2:	01045783          	lhu	a5,16(s0)
    800027b6:	e008                	sd	a0,0(s0)
    800027b8:	ec08                	sd	a0,24(s0)
    800027ba:	0807e793          	ori	a5,a5,128
    800027be:	00f41823          	sh	a5,16(s0)
    800027c2:	67a2                	ld	a5,8(sp)
    800027c4:	d01c                	sw	a5,32(s0)
    800027c6:	4792                	lw	a5,4(sp)
    800027c8:	cf91                	beqz	a5,800027e4 <__smakebuf_r+0x96>
    800027ca:	01241583          	lh	a1,18(s0)
    800027ce:	854a                	mv	a0,s2
    800027d0:	518000ef          	jal	ra,80002ce8 <_isatty_r>
    800027d4:	c901                	beqz	a0,800027e4 <__smakebuf_r+0x96>
    800027d6:	01045783          	lhu	a5,16(s0)
    800027da:	9bf1                	andi	a5,a5,-4
    800027dc:	0017e793          	ori	a5,a5,1
    800027e0:	00f41823          	sh	a5,16(s0)
    800027e4:	01045503          	lhu	a0,16(s0)
    800027e8:	8cc9                	or	s1,s1,a0
    800027ea:	00941823          	sh	s1,16(s0)
    800027ee:	b741                	j	8000276e <__smakebuf_r+0x20>

00000000800027f0 <memset>:
    800027f0:	433d                	li	t1,15
    800027f2:	872a                	mv	a4,a0
    800027f4:	02c37163          	bgeu	t1,a2,80002816 <memset+0x26>
    800027f8:	00f77793          	andi	a5,a4,15
    800027fc:	e3c1                	bnez	a5,8000287c <memset+0x8c>
    800027fe:	e1bd                	bnez	a1,80002864 <memset+0x74>
    80002800:	ff067693          	andi	a3,a2,-16
    80002804:	8a3d                	andi	a2,a2,15
    80002806:	96ba                	add	a3,a3,a4
    80002808:	e30c                	sd	a1,0(a4)
    8000280a:	e70c                	sd	a1,8(a4)
    8000280c:	0741                	addi	a4,a4,16
    8000280e:	fed76de3          	bltu	a4,a3,80002808 <memset+0x18>
    80002812:	e211                	bnez	a2,80002816 <memset+0x26>
    80002814:	8082                	ret
    80002816:	40c306b3          	sub	a3,t1,a2
    8000281a:	068a                	slli	a3,a3,0x2
    8000281c:	00000297          	auipc	t0,0x0
    80002820:	9696                	add	a3,a3,t0
    80002822:	00a68067          	jr	10(a3)
    80002826:	00b70723          	sb	a1,14(a4) # 200e <__stack_size+0x180e>
    8000282a:	00b706a3          	sb	a1,13(a4)
    8000282e:	00b70623          	sb	a1,12(a4)
    80002832:	00b705a3          	sb	a1,11(a4)
    80002836:	00b70523          	sb	a1,10(a4)
    8000283a:	00b704a3          	sb	a1,9(a4)
    8000283e:	00b70423          	sb	a1,8(a4)
    80002842:	00b703a3          	sb	a1,7(a4)
    80002846:	00b70323          	sb	a1,6(a4)
    8000284a:	00b702a3          	sb	a1,5(a4)
    8000284e:	00b70223          	sb	a1,4(a4)
    80002852:	00b701a3          	sb	a1,3(a4)
    80002856:	00b70123          	sb	a1,2(a4)
    8000285a:	00b700a3          	sb	a1,1(a4)
    8000285e:	00b70023          	sb	a1,0(a4)
    80002862:	8082                	ret
    80002864:	0ff5f593          	andi	a1,a1,255
    80002868:	00859693          	slli	a3,a1,0x8
    8000286c:	8dd5                	or	a1,a1,a3
    8000286e:	01059693          	slli	a3,a1,0x10
    80002872:	8dd5                	or	a1,a1,a3
    80002874:	02059693          	slli	a3,a1,0x20
    80002878:	8dd5                	or	a1,a1,a3
    8000287a:	b759                	j	80002800 <memset+0x10>
    8000287c:	00279693          	slli	a3,a5,0x2
    80002880:	00000297          	auipc	t0,0x0
    80002884:	9696                	add	a3,a3,t0
    80002886:	8286                	mv	t0,ra
    80002888:	fa2680e7          	jalr	-94(a3)
    8000288c:	8096                	mv	ra,t0
    8000288e:	17c1                	addi	a5,a5,-16
    80002890:	8f1d                	sub	a4,a4,a5
    80002892:	963e                	add	a2,a2,a5
    80002894:	f8c371e3          	bgeu	t1,a2,80002816 <memset+0x26>
    80002898:	b79d                	j	800027fe <memset+0xe>

000000008000289a <__sfputc_r>:
    8000289a:	465c                	lw	a5,12(a2)
    8000289c:	37fd                	addiw	a5,a5,-1
    8000289e:	c65c                	sw	a5,12(a2)
    800028a0:	02079693          	slli	a3,a5,0x20
    800028a4:	0007871b          	sext.w	a4,a5
    800028a8:	0006da63          	bgez	a3,800028bc <__sfputc_r+0x22>
    800028ac:	561c                	lw	a5,40(a2)
    800028ae:	00f74563          	blt	a4,a5,800028b8 <__sfputc_r+0x1e>
    800028b2:	47a9                	li	a5,10
    800028b4:	00f59463          	bne	a1,a5,800028bc <__sfputc_r+0x22>
    800028b8:	885ff06f          	j	8000213c <__swbuf_r>
    800028bc:	621c                	ld	a5,0(a2)
    800028be:	852e                	mv	a0,a1
    800028c0:	00178713          	addi	a4,a5,1
    800028c4:	e218                	sd	a4,0(a2)
    800028c6:	00b78023          	sb	a1,0(a5)
    800028ca:	8082                	ret

00000000800028cc <__sfputs_r>:
    800028cc:	7179                	addi	sp,sp,-48
    800028ce:	f022                	sd	s0,32(sp)
    800028d0:	ec26                	sd	s1,24(sp)
    800028d2:	e84a                	sd	s2,16(sp)
    800028d4:	e44e                	sd	s3,8(sp)
    800028d6:	e052                	sd	s4,0(sp)
    800028d8:	f406                	sd	ra,40(sp)
    800028da:	892a                	mv	s2,a0
    800028dc:	89ae                	mv	s3,a1
    800028de:	8432                	mv	s0,a2
    800028e0:	00d604b3          	add	s1,a2,a3
    800028e4:	5a7d                	li	s4,-1
    800028e6:	00941463          	bne	s0,s1,800028ee <__sfputs_r+0x22>
    800028ea:	4501                	li	a0,0
    800028ec:	a811                	j	80002900 <__sfputs_r+0x34>
    800028ee:	00044583          	lbu	a1,0(s0)
    800028f2:	864e                	mv	a2,s3
    800028f4:	854a                	mv	a0,s2
    800028f6:	fa5ff0ef          	jal	ra,8000289a <__sfputc_r>
    800028fa:	0405                	addi	s0,s0,1
    800028fc:	ff4515e3          	bne	a0,s4,800028e6 <__sfputs_r+0x1a>
    80002900:	70a2                	ld	ra,40(sp)
    80002902:	7402                	ld	s0,32(sp)
    80002904:	64e2                	ld	s1,24(sp)
    80002906:	6942                	ld	s2,16(sp)
    80002908:	69a2                	ld	s3,8(sp)
    8000290a:	6a02                	ld	s4,0(sp)
    8000290c:	6145                	addi	sp,sp,48
    8000290e:	8082                	ret

0000000080002910 <_vfiprintf_r>:
    80002910:	7155                	addi	sp,sp,-208
    80002912:	e1a2                	sd	s0,192(sp)
    80002914:	fd26                	sd	s1,184(sp)
    80002916:	f94a                	sd	s2,176(sp)
    80002918:	f54e                	sd	s3,168(sp)
    8000291a:	f152                	sd	s4,160(sp)
    8000291c:	e586                	sd	ra,200(sp)
    8000291e:	ed56                	sd	s5,152(sp)
    80002920:	e95a                	sd	s6,144(sp)
    80002922:	e55e                	sd	s7,136(sp)
    80002924:	e162                	sd	s8,128(sp)
    80002926:	fce6                	sd	s9,120(sp)
    80002928:	f8ea                	sd	s10,112(sp)
    8000292a:	89aa                	mv	s3,a0
    8000292c:	84ae                	mv	s1,a1
    8000292e:	8932                	mv	s2,a2
    80002930:	8436                	mv	s0,a3
    80002932:	4a01                	li	s4,0
    80002934:	c509                	beqz	a0,8000293e <_vfiprintf_r+0x2e>
    80002936:	591c                	lw	a5,48(a0)
    80002938:	e399                	bnez	a5,8000293e <_vfiprintf_r+0x2e>
    8000293a:	c39ff0ef          	jal	ra,80002572 <__sinit>
    8000293e:	0fffe797          	auipc	a5,0xfffe
    80002942:	aa278793          	addi	a5,a5,-1374 # 900003e0 <__sf_fake_stdin>
    80002946:	0cf49e63          	bne	s1,a5,80002a22 <_vfiprintf_r+0x112>
    8000294a:	0089b483          	ld	s1,8(s3)
    8000294e:	0104d783          	lhu	a5,16(s1)
    80002952:	8ba1                	andi	a5,a5,8
    80002954:	cbed                	beqz	a5,80002a46 <_vfiprintf_r+0x136>
    80002956:	6c9c                	ld	a5,24(s1)
    80002958:	c7fd                	beqz	a5,80002a46 <_vfiprintf_r+0x136>
    8000295a:	02000793          	li	a5,32
    8000295e:	02f104a3          	sb	a5,41(sp)
    80002962:	5afd                	li	s5,-1
    80002964:	03000793          	li	a5,48
    80002968:	d202                	sw	zero,36(sp)
    8000296a:	02f10523          	sb	a5,42(sp)
    8000296e:	e422                	sd	s0,8(sp)
    80002970:	02500b93          	li	s7,37
    80002974:	020a9c13          	slli	s8,s5,0x20
    80002978:	0fffeb17          	auipc	s6,0xfffe
    8000297c:	ad8b0b13          	addi	s6,s6,-1320 # 90000450 <__sf_fake_stdout+0x38>
    80002980:	4c85                	li	s9,1
    80002982:	844a                	mv	s0,s2
    80002984:	00044783          	lbu	a5,0(s0)
    80002988:	c399                	beqz	a5,8000298e <_vfiprintf_r+0x7e>
    8000298a:	0f779263          	bne	a5,s7,80002a6e <_vfiprintf_r+0x15e>
    8000298e:	41240d3b          	subw	s10,s0,s2
    80002992:	000d0e63          	beqz	s10,800029ae <_vfiprintf_r+0x9e>
    80002996:	86ea                	mv	a3,s10
    80002998:	864a                	mv	a2,s2
    8000299a:	85a6                	mv	a1,s1
    8000299c:	854e                	mv	a0,s3
    8000299e:	f2fff0ef          	jal	ra,800028cc <__sfputs_r>
    800029a2:	1f550d63          	beq	a0,s5,80002b9c <_vfiprintf_r+0x28c>
    800029a6:	5792                	lw	a5,36(sp)
    800029a8:	01a787bb          	addw	a5,a5,s10
    800029ac:	d23e                	sw	a5,36(sp)
    800029ae:	00044783          	lbu	a5,0(s0)
    800029b2:	1e078563          	beqz	a5,80002b9c <_vfiprintf_r+0x28c>
    800029b6:	00140913          	addi	s2,s0,1
    800029ba:	e862                	sd	s8,16(sp)
    800029bc:	ec02                	sd	zero,24(sp)
    800029be:	040109a3          	sb	zero,83(sp)
    800029c2:	d482                	sw	zero,104(sp)
    800029c4:	00094583          	lbu	a1,0(s2)
    800029c8:	4615                	li	a2,5
    800029ca:	855a                	mv	a0,s6
    800029cc:	380000ef          	jal	ra,80002d4c <memchr>
    800029d0:	00190413          	addi	s0,s2,1
    800029d4:	ed59                	bnez	a0,80002a72 <_vfiprintf_r+0x162>
    800029d6:	47c2                	lw	a5,16(sp)
    800029d8:	0107f713          	andi	a4,a5,16
    800029dc:	c709                	beqz	a4,800029e6 <_vfiprintf_r+0xd6>
    800029de:	02000713          	li	a4,32
    800029e2:	04e109a3          	sb	a4,83(sp)
    800029e6:	0087f713          	andi	a4,a5,8
    800029ea:	c709                	beqz	a4,800029f4 <_vfiprintf_r+0xe4>
    800029ec:	02b00713          	li	a4,43
    800029f0:	04e109a3          	sb	a4,83(sp)
    800029f4:	00094683          	lbu	a3,0(s2)
    800029f8:	02a00713          	li	a4,42
    800029fc:	08e68463          	beq	a3,a4,80002a84 <_vfiprintf_r+0x174>
    80002a00:	47f2                	lw	a5,28(sp)
    80002a02:	844a                	mv	s0,s2
    80002a04:	4681                	li	a3,0
    80002a06:	4625                	li	a2,9
    80002a08:	4829                	li	a6,10
    80002a0a:	00044703          	lbu	a4,0(s0)
    80002a0e:	00140513          	addi	a0,s0,1
    80002a12:	fd07059b          	addiw	a1,a4,-48
    80002a16:	872e                	mv	a4,a1
    80002a18:	0ab67b63          	bgeu	a2,a1,80002ace <_vfiprintf_r+0x1be>
    80002a1c:	cea5                	beqz	a3,80002a94 <_vfiprintf_r+0x184>
    80002a1e:	ce3e                	sw	a5,28(sp)
    80002a20:	a895                	j	80002a94 <_vfiprintf_r+0x184>
    80002a22:	0fffe797          	auipc	a5,0xfffe
    80002a26:	9f678793          	addi	a5,a5,-1546 # 90000418 <__sf_fake_stdout>
    80002a2a:	00f49563          	bne	s1,a5,80002a34 <_vfiprintf_r+0x124>
    80002a2e:	0109b483          	ld	s1,16(s3)
    80002a32:	bf31                	j	8000294e <_vfiprintf_r+0x3e>
    80002a34:	0fffe797          	auipc	a5,0xfffe
    80002a38:	97478793          	addi	a5,a5,-1676 # 900003a8 <__sf_fake_stderr>
    80002a3c:	f0f499e3          	bne	s1,a5,8000294e <_vfiprintf_r+0x3e>
    80002a40:	0189b483          	ld	s1,24(s3)
    80002a44:	b729                	j	8000294e <_vfiprintf_r+0x3e>
    80002a46:	85a6                	mv	a1,s1
    80002a48:	854e                	mv	a0,s3
    80002a4a:	fb8ff0ef          	jal	ra,80002202 <__swsetup_r>
    80002a4e:	d511                	beqz	a0,8000295a <_vfiprintf_r+0x4a>
    80002a50:	557d                	li	a0,-1
    80002a52:	60ae                	ld	ra,200(sp)
    80002a54:	640e                	ld	s0,192(sp)
    80002a56:	74ea                	ld	s1,184(sp)
    80002a58:	794a                	ld	s2,176(sp)
    80002a5a:	79aa                	ld	s3,168(sp)
    80002a5c:	7a0a                	ld	s4,160(sp)
    80002a5e:	6aea                	ld	s5,152(sp)
    80002a60:	6b4a                	ld	s6,144(sp)
    80002a62:	6baa                	ld	s7,136(sp)
    80002a64:	6c0a                	ld	s8,128(sp)
    80002a66:	7ce6                	ld	s9,120(sp)
    80002a68:	7d46                	ld	s10,112(sp)
    80002a6a:	6169                	addi	sp,sp,208
    80002a6c:	8082                	ret
    80002a6e:	0405                	addi	s0,s0,1
    80002a70:	bf11                	j	80002984 <_vfiprintf_r+0x74>
    80002a72:	47c2                	lw	a5,16(sp)
    80002a74:	41650533          	sub	a0,a0,s6
    80002a78:	00ac953b          	sllw	a0,s9,a0
    80002a7c:	8d5d                	or	a0,a0,a5
    80002a7e:	c82a                	sw	a0,16(sp)
    80002a80:	8922                	mv	s2,s0
    80002a82:	b789                	j	800029c4 <_vfiprintf_r+0xb4>
    80002a84:	6722                	ld	a4,8(sp)
    80002a86:	00870693          	addi	a3,a4,8
    80002a8a:	4318                	lw	a4,0(a4)
    80002a8c:	e436                	sd	a3,8(sp)
    80002a8e:	02074963          	bltz	a4,80002ac0 <_vfiprintf_r+0x1b0>
    80002a92:	ce3a                	sw	a4,28(sp)
    80002a94:	00044703          	lbu	a4,0(s0)
    80002a98:	02e00793          	li	a5,46
    80002a9c:	06f71163          	bne	a4,a5,80002afe <_vfiprintf_r+0x1ee>
    80002aa0:	00144703          	lbu	a4,1(s0)
    80002aa4:	02a00793          	li	a5,42
    80002aa8:	02f71b63          	bne	a4,a5,80002ade <_vfiprintf_r+0x1ce>
    80002aac:	67a2                	ld	a5,8(sp)
    80002aae:	0409                	addi	s0,s0,2
    80002ab0:	00878713          	addi	a4,a5,8
    80002ab4:	439c                	lw	a5,0(a5)
    80002ab6:	e43a                	sd	a4,8(sp)
    80002ab8:	0207c163          	bltz	a5,80002ada <_vfiprintf_r+0x1ca>
    80002abc:	ca3e                	sw	a5,20(sp)
    80002abe:	a081                	j	80002afe <_vfiprintf_r+0x1ee>
    80002ac0:	40e0073b          	negw	a4,a4
    80002ac4:	0027e793          	ori	a5,a5,2
    80002ac8:	ce3a                	sw	a4,28(sp)
    80002aca:	c83e                	sw	a5,16(sp)
    80002acc:	b7e1                	j	80002a94 <_vfiprintf_r+0x184>
    80002ace:	02f807bb          	mulw	a5,a6,a5
    80002ad2:	842a                	mv	s0,a0
    80002ad4:	4685                	li	a3,1
    80002ad6:	9fb9                	addw	a5,a5,a4
    80002ad8:	bf0d                	j	80002a0a <_vfiprintf_r+0xfa>
    80002ada:	57fd                	li	a5,-1
    80002adc:	b7c5                	j	80002abc <_vfiprintf_r+0x1ac>
    80002ade:	0405                	addi	s0,s0,1
    80002ae0:	ca02                	sw	zero,20(sp)
    80002ae2:	4681                	li	a3,0
    80002ae4:	4781                	li	a5,0
    80002ae6:	4625                	li	a2,9
    80002ae8:	4829                	li	a6,10
    80002aea:	00044703          	lbu	a4,0(s0)
    80002aee:	00140513          	addi	a0,s0,1
    80002af2:	fd07059b          	addiw	a1,a4,-48
    80002af6:	872e                	mv	a4,a1
    80002af8:	06b67b63          	bgeu	a2,a1,80002b6e <_vfiprintf_r+0x25e>
    80002afc:	f2e1                	bnez	a3,80002abc <_vfiprintf_r+0x1ac>
    80002afe:	00044583          	lbu	a1,0(s0)
    80002b02:	460d                	li	a2,3
    80002b04:	0fffe517          	auipc	a0,0xfffe
    80002b08:	95450513          	addi	a0,a0,-1708 # 90000458 <__sf_fake_stdout+0x40>
    80002b0c:	240000ef          	jal	ra,80002d4c <memchr>
    80002b10:	cd11                	beqz	a0,80002b2c <_vfiprintf_r+0x21c>
    80002b12:	0fffe797          	auipc	a5,0xfffe
    80002b16:	94678793          	addi	a5,a5,-1722 # 90000458 <__sf_fake_stdout+0x40>
    80002b1a:	8d1d                	sub	a0,a0,a5
    80002b1c:	04000793          	li	a5,64
    80002b20:	00a7953b          	sllw	a0,a5,a0
    80002b24:	47c2                	lw	a5,16(sp)
    80002b26:	0405                	addi	s0,s0,1
    80002b28:	8d5d                	or	a0,a0,a5
    80002b2a:	c82a                	sw	a0,16(sp)
    80002b2c:	00044583          	lbu	a1,0(s0)
    80002b30:	4619                	li	a2,6
    80002b32:	0fffe517          	auipc	a0,0xfffe
    80002b36:	92e50513          	addi	a0,a0,-1746 # 90000460 <__sf_fake_stdout+0x48>
    80002b3a:	00140913          	addi	s2,s0,1
    80002b3e:	02b10423          	sb	a1,40(sp)
    80002b42:	20a000ef          	jal	ra,80002d4c <memchr>
    80002b46:	c13d                	beqz	a0,80002bac <_vfiprintf_r+0x29c>
    80002b48:	000007b7          	lui	a5,0x0
    80002b4c:	00078793          	mv	a5,a5
    80002b50:	e79d                	bnez	a5,80002b7e <_vfiprintf_r+0x26e>
    80002b52:	4742                	lw	a4,16(sp)
    80002b54:	67a2                	ld	a5,8(sp)
    80002b56:	10077713          	andi	a4,a4,256
    80002b5a:	c305                	beqz	a4,80002b7a <_vfiprintf_r+0x26a>
    80002b5c:	07bd                	addi	a5,a5,15
    80002b5e:	9bc1                	andi	a5,a5,-16
    80002b60:	07c1                	addi	a5,a5,16
    80002b62:	e43e                	sd	a5,8(sp)
    80002b64:	5792                	lw	a5,36(sp)
    80002b66:	014787bb          	addw	a5,a5,s4
    80002b6a:	d23e                	sw	a5,36(sp)
    80002b6c:	bd19                	j	80002982 <_vfiprintf_r+0x72>
    80002b6e:	02f807bb          	mulw	a5,a6,a5
    80002b72:	842a                	mv	s0,a0
    80002b74:	4685                	li	a3,1
    80002b76:	9fb9                	addw	a5,a5,a4
    80002b78:	bf8d                	j	80002aea <_vfiprintf_r+0x1da>
    80002b7a:	07a1                	addi	a5,a5,8
    80002b7c:	b7dd                	j	80002b62 <_vfiprintf_r+0x252>
    80002b7e:	0038                	addi	a4,sp,8
    80002b80:	00000697          	auipc	a3,0x0
    80002b84:	d4c68693          	addi	a3,a3,-692 # 800028cc <__sfputs_r>
    80002b88:	8626                	mv	a2,s1
    80002b8a:	080c                	addi	a1,sp,16
    80002b8c:	854e                	mv	a0,s3
    80002b8e:	00000097          	auipc	ra,0x0
    80002b92:	000000e7          	jalr	zero # 0 <RISCV_MIE_MSIE-0x8>
    80002b96:	8a2a                	mv	s4,a0
    80002b98:	fd5516e3          	bne	a0,s5,80002b64 <_vfiprintf_r+0x254>
    80002b9c:	0104d783          	lhu	a5,16(s1)
    80002ba0:	0407f793          	andi	a5,a5,64
    80002ba4:	ea0796e3          	bnez	a5,80002a50 <_vfiprintf_r+0x140>
    80002ba8:	5512                	lw	a0,36(sp)
    80002baa:	b565                	j	80002a52 <_vfiprintf_r+0x142>
    80002bac:	0038                	addi	a4,sp,8
    80002bae:	00000697          	auipc	a3,0x0
    80002bb2:	d1e68693          	addi	a3,a3,-738 # 800028cc <__sfputs_r>
    80002bb6:	8626                	mv	a2,s1
    80002bb8:	080c                	addi	a1,sp,16
    80002bba:	854e                	mv	a0,s3
    80002bbc:	2d0000ef          	jal	ra,80002e8c <_printf_i>
    80002bc0:	bfd9                	j	80002b96 <_vfiprintf_r+0x286>

0000000080002bc2 <__sread>:
    80002bc2:	1141                	addi	sp,sp,-16
    80002bc4:	e022                	sd	s0,0(sp)
